---
triple:          'arm64-apple-darwin'
binary-path:     prog
relocations:
  - { offsetInCU: 0x59, offset: 0x59, size: 0x8, addend: 0x0, symName: __ZN8interval5emptyE, symObjAddr: 0x4B8A8, symBinAddr: 0x100010000, symSize: 0x0 }
  - { offsetInCU: 0x14B, offset: 0x14B, size: 0x8, addend: 0x0, symName: __ZN8interval8universeE, symObjAddr: 0x4B8B8, symBinAddr: 0x100010010, symSize: 0x0 }
  - { offsetInCU: 0x158, offset: 0x158, size: 0x8, addend: 0x0, symName: __Z11write_colorRNSt3__113basic_ostreamIcNS_11char_traitsIcEEEERK4vec3, symObjAddr: 0x3C, symBinAddr: 0x100002124, symSize: 0x19C }
  - { offsetInCU: 0x17D, offset: 0x17D, size: 0x8, addend: 0x0, symName: __ZZ11write_colorRNSt3__113basic_ostreamIcNS_11char_traitsIcEEEERK4vec3E9intensity, symObjAddr: 0x4B8C8, symBinAddr: 0x100010020, symSize: 0x0 }
  - { offsetInCU: 0x54E3, offset: 0x54E3, size: 0x8, addend: 0x0, symName: __ZNSt3__124__put_character_sequenceB7v160006IcNS_11char_traitsIcEEEERNS_13basic_ostreamIT_T0_EES7_PKS4_m, symObjAddr: 0x4018, symBinAddr: 0x100006100, symSize: 0x1EC }
  - { offsetInCU: 0x83BB, offset: 0x83BB, size: 0x8, addend: 0x0, symName: __ZNSt3__1lsB7v160006INS_11char_traitsIcEEEERNS_13basic_ostreamIcT_EES6_c, symObjAddr: 0x2E4, symBinAddr: 0x1000023CC, symSize: 0x34 }
  - { offsetInCU: 0x8401, offset: 0x8401, size: 0x8, addend: 0x0, symName: __ZNSt3__111make_sharedB7v160006I10lambertianJ4vec3EvEENS_10shared_ptrIT_EEDpOT0_, symObjAddr: 0x818, symBinAddr: 0x100002900, symSize: 0x40 }
  - { offsetInCU: 0x8444, offset: 0x8444, size: 0x8, addend: 0x0, symName: __ZNSt3__111make_sharedB7v160006I10dielectricJdEvEENS_10shared_ptrIT_EEDpOT0_, symObjAddr: 0x89C, symBinAddr: 0x100002984, symSize: 0x40 }
  - { offsetInCU: 0x8487, offset: 0x8487, size: 0x8, addend: 0x0, symName: __ZNSt3__111make_sharedB7v160006I5metalJ4vec3dEvEENS_10shared_ptrIT_EEDpOT0_, symObjAddr: 0x8DC, symBinAddr: 0x1000029C4, symSize: 0x48 }
  - { offsetInCU: 0x84DE, offset: 0x84DE, size: 0x8, addend: 0x0, symName: __ZNSt3__111make_sharedB7v160006I6sphereJ4vec3dRNS_10shared_ptrI10lambertianEEEvEENS3_IT_EEDpOT0_, symObjAddr: 0x954, symBinAddr: 0x100002A3C, symSize: 0x50 }
  - { offsetInCU: 0x8765, offset: 0x8765, size: 0x8, addend: 0x0, symName: __ZNSt3__111make_sharedB7v160006I6sphereJ4vec3dRNS_10shared_ptrI10dielectricEEEvEENS3_IT_EEDpOT0_, symObjAddr: 0xA30, symBinAddr: 0x100002B18, symSize: 0x50 }
  - { offsetInCU: 0x87D0, offset: 0x87D0, size: 0x8, addend: 0x0, symName: __ZNSt3__111make_sharedB7v160006I6sphereJ4vec3dRNS_10shared_ptrI5metalEEEvEENS3_IT_EEDpOT0_, symObjAddr: 0xA80, symBinAddr: 0x100002B68, symSize: 0x50 }
  - { offsetInCU: 0x8E8F, offset: 0x8E8F, size: 0x8, addend: 0x0, symName: __ZNSt3__119__debug_db_insert_cB7v160006INS_6vectorINS_10shared_ptrI8hittableEENS_9allocatorIS4_EEEEEEvPT_, symObjAddr: 0x10C0, symBinAddr: 0x1000031A8, symSize: 0x10 }
  - { offsetInCU: 0x8EC0, offset: 0x8EC0, size: 0x8, addend: 0x0, symName: __ZNSt3__1neB7v160006IPKNS_10shared_ptrI8hittableEEEEbRKNS_11__wrap_iterIT_EESA_, symObjAddr: 0x1224, symBinAddr: 0x10000330C, symSize: 0x34 }
  - { offsetInCU: 0x8F03, offset: 0x8F03, size: 0x8, addend: 0x0, symName: __ZNSt3__1eqB7v160006IPKNS_10shared_ptrI8hittableEEEEbRKNS_11__wrap_iterIT_EESA_, symObjAddr: 0x14B8, symBinAddr: 0x1000035A0, symSize: 0x48 }
  - { offsetInCU: 0x8F46, offset: 0x8F46, size: 0x8, addend: 0x0, symName: __ZNSt3__134__libcpp_atomic_refcount_incrementB7v160006IlEET_RS1_, symObjAddr: 0x16C8, symBinAddr: 0x1000037B0, symSize: 0x30 }
  - { offsetInCU: 0x8F7B, offset: 0x8F7B, size: 0x8, addend: 0x0, symName: __ZNSt3__14swapB7v160006IP8materialEENS_9enable_ifIXaasr21is_move_constructibleIT_EE5valuesr18is_move_assignableIS4_EE5valueEvE4typeERS4_S7_, symObjAddr: 0x16F8, symBinAddr: 0x1000037E0, symSize: 0x3C }
  - { offsetInCU: 0x8FCC, offset: 0x8FCC, size: 0x8, addend: 0x0, symName: __ZNSt3__14swapB7v160006IPNS_19__shared_weak_countEEENS_9enable_ifIXaasr21is_move_constructibleIT_EE5valuesr18is_move_assignableIS4_EE5valueEvE4typeERS4_S7_, symObjAddr: 0x1734, symBinAddr: 0x10000381C, symSize: 0x3C }
  - { offsetInCU: 0x901D, offset: 0x901D, size: 0x8, addend: 0x0, symName: __ZNSt3__134__libcpp_atomic_refcount_decrementB7v160006IlEET_RS1_, symObjAddr: 0x187C, symBinAddr: 0x100003964, symSize: 0x30 }
  - { offsetInCU: 0x9052, offset: 0x9052, size: 0x8, addend: 0x0, symName: __ZNSt3__112__to_addressB7v160006INS_10shared_ptrI8hittableEEEEPT_S5_, symObjAddr: 0x1BE0, symBinAddr: 0x100003CC8, symSize: 0x14 }
  - { offsetInCU: 0x9087, offset: 0x9087, size: 0x8, addend: 0x0, symName: __ZNSt3__13maxB7v160006ImEERKT_S3_S3_, symObjAddr: 0x20B0, symBinAddr: 0x100004198, symSize: 0x2C }
  - { offsetInCU: 0x90CA, offset: 0x90CA, size: 0x8, addend: 0x0, symName: __ZNSt3__13minB7v160006ImEERKT_S3_S3_, symObjAddr: 0x20DC, symBinAddr: 0x1000041C4, symSize: 0x2C }
  - { offsetInCU: 0x92F7, offset: 0x92F7, size: 0x8, addend: 0x0, symName: __ZNSt3__13minB7v160006ImNS_6__lessImmEEEERKT_S5_S5_T0_, symObjAddr: 0x2168, symBinAddr: 0x100004250, symSize: 0x54 }
  - { offsetInCU: 0x938C, offset: 0x938C, size: 0x8, addend: 0x0, symName: __ZNSt3__120__throw_length_errorB7v160006EPKc, symObjAddr: 0x2244, symBinAddr: 0x10000432C, symSize: 0x64 }
  - { offsetInCU: 0x93B4, offset: 0x93B4, size: 0x8, addend: 0x0, symName: __ZNSt3__13maxB7v160006ImNS_6__lessImmEEEERKT_S5_S5_T0_, symObjAddr: 0x2388, symBinAddr: 0x100004470, symSize: 0x54 }
  - { offsetInCU: 0x940E, offset: 0x940E, size: 0x8, addend: 0x0, symName: __ZNSt3__119__allocate_at_leastB7v160006INS_9allocatorINS_10shared_ptrI8hittableEEEEEENS_19__allocation_resultINS_16allocator_traitsIT_E7pointerEEERS8_m, symObjAddr: 0x24EC, symBinAddr: 0x1000045D4, symSize: 0x40 }
  - { offsetInCU: 0x9451, offset: 0x9451, size: 0x8, addend: 0x0, symName: __ZNSt3__117__libcpp_allocateB7v160006Emm, symObjAddr: 0x2670, symBinAddr: 0x100004758, symSize: 0x60 }
  - { offsetInCU: 0x94AB, offset: 0x94AB, size: 0x8, addend: 0x0, symName: __ZNSt3__124__is_overaligned_for_newB7v160006Em, symObjAddr: 0x26D0, symBinAddr: 0x1000047B8, symSize: 0x20 }
  - { offsetInCU: 0x94D9, offset: 0x94D9, size: 0x8, addend: 0x0, symName: __ZNSt3__121__libcpp_operator_newB7v160006IJmSt11align_val_tEEEPvDpT_, symObjAddr: 0x26F0, symBinAddr: 0x1000047D8, symSize: 0x2C }
  - { offsetInCU: 0x9526, offset: 0x9526, size: 0x8, addend: 0x0, symName: __ZNSt3__121__libcpp_operator_newB7v160006IJmEEEPvDpT_, symObjAddr: 0x271C, symBinAddr: 0x100004804, symSize: 0x24 }
  - { offsetInCU: 0x955F, offset: 0x955F, size: 0x8, addend: 0x0, symName: __ZNSt3__142__uninitialized_allocator_move_if_noexceptB7v160006INS_9allocatorINS_10shared_ptrI8hittableEEEENS_16reverse_iteratorIPS4_EES8_S8_EET2_RT_T0_T1_S9_, symObjAddr: 0x285C, symBinAddr: 0x100004944, symSize: 0x12C }
  - { offsetInCU: 0x95FF, offset: 0x95FF, size: 0x8, addend: 0x0, symName: __ZNSt3__14swapB7v160006IPNS_10shared_ptrI8hittableEEEENS_9enable_ifIXaasr21is_move_constructibleIT_EE5valuesr18is_move_assignableIS6_EE5valueEvE4typeERS6_S9_, symObjAddr: 0x29D4, symBinAddr: 0x100004ABC, symSize: 0x3C }
  - { offsetInCU: 0x9650, offset: 0x9650, size: 0x8, addend: 0x0, symName: __ZNSt3__125__debug_db_invalidate_allB7v160006INS_6vectorINS_10shared_ptrI8hittableEENS_9allocatorIS4_EEEEEEvPT_, symObjAddr: 0x2ABC, symBinAddr: 0x100004BA4, symSize: 0x10 }
  - { offsetInCU: 0x9681, offset: 0x9681, size: 0x8, addend: 0x0, symName: __ZNSt3__122__make_exception_guardB7v160006INS_29_AllocatorDestroyRangeReverseINS_9allocatorINS_10shared_ptrI8hittableEEEENS_16reverse_iteratorIPS5_EEEEEENS_28__exception_guard_exceptionsIT_EESC_, symObjAddr: 0x2B14, symBinAddr: 0x100004BFC, symSize: 0x4C }
  - { offsetInCU: 0x96B7, offset: 0x96B7, size: 0x8, addend: 0x0, symName: __ZNSt3__1neB7v160006IPNS_10shared_ptrI8hittableEES4_EEbRKNS_16reverse_iteratorIT_EERKNS5_IT0_EE, symObjAddr: 0x2BA4, symBinAddr: 0x100004C8C, symSize: 0x48 }
  - { offsetInCU: 0x9703, offset: 0x9703, size: 0x8, addend: 0x0, symName: __ZNSt3__112__to_addressB7v160006INS_16reverse_iteratorIPNS_10shared_ptrI8hittableEEEEvEENS_5decayIDTclsr19__to_address_helperIT_EE6__callclsr3stdE7declvalIRKS8_EEEEE4typeESA_, symObjAddr: 0x2C20, symBinAddr: 0x100004D08, symSize: 0x24 }
  - { offsetInCU: 0x9762, offset: 0x9762, size: 0x8, addend: 0x0, symName: __ZNSt3__119__allocator_destroyB7v160006INS_9allocatorINS_10shared_ptrI8hittableEEEENS_16reverse_iteratorINS6_IPS4_EEEES9_EEvRT_T0_T1_, symObjAddr: 0x2F74, symBinAddr: 0x10000505C, symSize: 0x70 }
  - { offsetInCU: 0x97C7, offset: 0x97C7, size: 0x8, addend: 0x0, symName: __ZNSt3__1neB7v160006INS_16reverse_iteratorIPNS_10shared_ptrI8hittableEEEES6_EEbRKNS1_IT_EERKNS1_IT0_EE, symObjAddr: 0x3020, symBinAddr: 0x100005108, symSize: 0x60 }
  - { offsetInCU: 0x9813, offset: 0x9813, size: 0x8, addend: 0x0, symName: __ZNSt3__112__to_addressB7v160006INS_16reverse_iteratorINS1_IPNS_10shared_ptrI8hittableEEEEEEvEENS_5decayIDTclsr19__to_address_helperIT_EE6__callclsr3stdE7declvalIRKS9_EEEEE4typeESB_, symObjAddr: 0x30AC, symBinAddr: 0x100005194, symSize: 0x24 }
  - { offsetInCU: 0x9872, offset: 0x9872, size: 0x8, addend: 0x0, symName: __ZNSt3__119__libcpp_deallocateB7v160006EPvmm, symObjAddr: 0x3464, symBinAddr: 0x10000554C, symSize: 0x60 }
  - { offsetInCU: 0x98D7, offset: 0x98D7, size: 0x8, addend: 0x0, symName: __ZNSt3__127__do_deallocate_handle_sizeB7v160006IJSt11align_val_tEEEvPvmDpT_, symObjAddr: 0x34C4, symBinAddr: 0x1000055AC, symSize: 0x30 }
  - { offsetInCU: 0x992A, offset: 0x992A, size: 0x8, addend: 0x0, symName: __ZNSt3__127__do_deallocate_handle_sizeB7v160006IJEEEvPvmDpT_, symObjAddr: 0x34F4, symBinAddr: 0x1000055DC, symSize: 0x28 }
  - { offsetInCU: 0x9968, offset: 0x9968, size: 0x8, addend: 0x0, symName: __ZNSt3__124__libcpp_operator_deleteB7v160006IJPvSt11align_val_tEEEvDpT_, symObjAddr: 0x351C, symBinAddr: 0x100005604, symSize: 0x2C }
  - { offsetInCU: 0x99B1, offset: 0x99B1, size: 0x8, addend: 0x0, symName: __ZNSt3__124__libcpp_operator_deleteB7v160006IJPvEEEvDpT_, symObjAddr: 0x3548, symBinAddr: 0x100005630, symSize: 0x24 }
  - { offsetInCU: 0x99E6, offset: 0x99E6, size: 0x8, addend: 0x0, symName: __ZNSt3__1lsB7v160006INS_11char_traitsIcEEEERNS_13basic_ostreamIcT_EES6_PKc, symObjAddr: 0x3908, symBinAddr: 0x1000059F0, symSize: 0x48 }
  - { offsetInCU: 0x9A2C, offset: 0x9A2C, size: 0x8, addend: 0x0, symName: __ZNSt3__15flushB7v160006IcNS_11char_traitsIcEEEERNS_13basic_ostreamIT_T0_EES7_, symObjAddr: 0x397C, symBinAddr: 0x100005A64, symSize: 0x28 }
  - { offsetInCU: 0x9A6C, offset: 0x9A6C, size: 0x8, addend: 0x0, symName: __ZNSt3__116__pad_and_outputB7v160006IcNS_11char_traitsIcEEEENS_19ostreambuf_iteratorIT_T0_EES6_PKS4_S8_S8_RNS_8ios_baseES4_, symObjAddr: 0x4254, symBinAddr: 0x10000633C, symSize: 0x240 }
  - { offsetInCU: 0x9B3B, offset: 0x9B3B, size: 0x8, addend: 0x0, symName: __ZNSt3__119__debug_db_insert_cB7v160006INS_12basic_stringIcNS_11char_traitsIcEENS_9allocatorIcEEEEEEvPT_, symObjAddr: 0x4708, symBinAddr: 0x1000067F0, symSize: 0x10 }
  - { offsetInCU: 0x9B6C, offset: 0x9B6C, size: 0x8, addend: 0x0, symName: __ZNSt3__112__to_addressB7v160006IcEEPT_S2_, symObjAddr: 0x47D4, symBinAddr: 0x1000068BC, symSize: 0x14 }
  - { offsetInCU: 0x9BD4, offset: 0x9BD4, size: 0x8, addend: 0x0, symName: __ZNSt3__19use_facetB7v160006INS_5ctypeIcEEEERKT_RKNS_6localeE, symObjAddr: 0x4A8C, symBinAddr: 0x100006B74, symSize: 0x2C }
  - { offsetInCU: 0xA0A3, offset: 0xA0A3, size: 0x8, addend: 0x0, symName: __ZNSt3__118__constexpr_strlenB7v160006EPKc, symObjAddr: 0x4B24, symBinAddr: 0x100006C0C, symSize: 0x24 }
  - { offsetInCU: 0xA0CF, offset: 0xA0CF, size: 0x8, addend: 0x0, symName: __ZNSt3__118__debug_db_erase_cB7v160006INS_6vectorINS_10shared_ptrI8hittableEENS_9allocatorIS4_EEEEEEvPT_, symObjAddr: 0x4FB4, symBinAddr: 0x10000709C, symSize: 0x10 }
  - { offsetInCU: 0xA100, offset: 0xA100, size: 0x8, addend: 0x0, symName: __ZNSt3__115allocate_sharedB7v160006I10lambertianNS_9allocatorIS1_EEJ4vec3EvEENS_10shared_ptrIT_EERKT0_DpOT1_, symObjAddr: 0x50CC, symBinAddr: 0x1000071B4, symSize: 0x98 }
  - { offsetInCU: 0xA441, offset: 0xA441, size: 0x8, addend: 0x0, symName: __ZNSt3__115allocate_sharedB7v160006I10dielectricNS_9allocatorIS1_EEJdEvEENS_10shared_ptrIT_EERKT0_DpOT1_, symObjAddr: 0x5F18, symBinAddr: 0x100008000, symSize: 0x98 }
  - { offsetInCU: 0xA782, offset: 0xA782, size: 0x8, addend: 0x0, symName: __ZNSt3__115allocate_sharedB7v160006I5metalNS_9allocatorIS1_EEJ4vec3dEvEENS_10shared_ptrIT_EERKT0_DpOT1_, symObjAddr: 0x6E14, symBinAddr: 0x100008EFC, symSize: 0xA0 }
  - { offsetInCU: 0xAAD7, offset: 0xAAD7, size: 0x8, addend: 0x0, symName: __ZNSt3__115allocate_sharedB7v160006I6sphereNS_9allocatorIS1_EEJ4vec3dRNS_10shared_ptrI10lambertianEEEvEENS5_IT_EERKT0_DpOT1_, symObjAddr: 0x79F0, symBinAddr: 0x100009AD8, symSize: 0xA8 }
  - { offsetInCU: 0xAE41, offset: 0xAE41, size: 0x8, addend: 0x0, symName: __ZNSt3__115allocate_sharedB7v160006I6sphereNS_9allocatorIS1_EEJ4vec3dRNS_10shared_ptrI10dielectricEEEvEENS5_IT_EERKT0_DpOT1_, symObjAddr: 0x8998, symBinAddr: 0x10000AA80, symSize: 0xA8 }
  - { offsetInCU: 0xAEE3, offset: 0xAEE3, size: 0x8, addend: 0x0, symName: __ZNSt3__115allocate_sharedB7v160006I6sphereNS_9allocatorIS1_EEJ4vec3dRNS_10shared_ptrI5metalEEEvEENS5_IT_EERKT0_DpOT1_, symObjAddr: 0x8C28, symBinAddr: 0x10000AD10, symSize: 0xA8 }
  - { offsetInCU: 0xB3C3, offset: 0xB3C3, size: 0x8, addend: 0x0, symName: __ZSt28__throw_bad_array_new_lengthB7v160006v, symObjAddr: 0x263C, symBinAddr: 0x100004724, symSize: 0x34 }
  - { offsetInCU: 0xBD24, offset: 0xBD24, size: 0x8, addend: 0x0, symName: __ZNSt3__16vectorINS_10shared_ptrI8hittableEENS_9allocatorIS3_EEE26__swap_out_circular_bufferERNS_14__split_bufferIS3_RS5_EE, symObjAddr: 0x1EB0, symBinAddr: 0x100003F98, symSize: 0x118 }
  - { offsetInCU: 0xC12C, offset: 0xC12C, size: 0x8, addend: 0x0, symName: __Z3powB7v160006IdiENSt3__19enable_ifIXaasr3std13is_arithmeticIT_EE5valuesr3std13is_arithmeticIT0_EE5valueENS0_9__promoteIS2_S3_vEEE4type4typeES2_S3_, symObjAddr: 0x6B20, symBinAddr: 0x100008C08, symSize: 0x38 }
  - { offsetInCU: 0xC407, offset: 0xC407, size: 0x8, addend: 0x0, symName: __Z4fmaxB7v160006IidENSt3__19enable_ifIXaasr3std13is_arithmeticIT_EE5valuesr3std13is_arithmeticIT0_EE5valueENS0_9__promoteIS2_S3_vEEE4type4typeES2_S3_, symObjAddr: 0x8238, symBinAddr: 0x10000A320, symSize: 0x2C }
  - { offsetInCU: 0xE66F, offset: 0xE66F, size: 0x8, addend: 0x0, symName: __ZN8intervalC1Edd, symObjAddr: 0x0, symBinAddr: 0x1000020E8, symSize: 0x3C }
  - { offsetInCU: 0xE6B5, offset: 0xE6B5, size: 0x8, addend: 0x0, symName: __ZNK4vec31xEv, symObjAddr: 0x1D8, symBinAddr: 0x1000022C0, symSize: 0x18 }
  - { offsetInCU: 0xE6DB, offset: 0xE6DB, size: 0x8, addend: 0x0, symName: __ZNK4vec31yEv, symObjAddr: 0x1F0, symBinAddr: 0x1000022D8, symSize: 0x18 }
  - { offsetInCU: 0xE701, offset: 0xE701, size: 0x8, addend: 0x0, symName: __ZNK4vec31zEv, symObjAddr: 0x208, symBinAddr: 0x1000022F0, symSize: 0x18 }
  - { offsetInCU: 0xE726, offset: 0xE726, size: 0x8, addend: 0x0, symName: __Z15linear_to_gammad, symObjAddr: 0x220, symBinAddr: 0x100002308, symSize: 0x44 }
  - { offsetInCU: 0xE753, offset: 0xE753, size: 0x8, addend: 0x0, symName: __ZNK8interval5clampEd, symObjAddr: 0x264, symBinAddr: 0x10000234C, symSize: 0x80 }
  - { offsetInCU: 0xE787, offset: 0xE787, size: 0x8, addend: 0x0, symName: _main, symObjAddr: 0x318, symBinAddr: 0x100002400, symSize: 0x4D4 }
  - { offsetInCU: 0xE8C5, offset: 0xE8C5, size: 0x8, addend: 0x0, symName: __ZN13hittable_listC1Ev, symObjAddr: 0x7EC, symBinAddr: 0x1000028D4, symSize: 0x2C }
  - { offsetInCU: 0xE8EF, offset: 0xE8EF, size: 0x8, addend: 0x0, symName: __ZN4vec3C1Eddd, symObjAddr: 0x858, symBinAddr: 0x100002940, symSize: 0x44 }
  - { offsetInCU: 0xE943, offset: 0xE943, size: 0x8, addend: 0x0, symName: __ZN13hittable_list3addENSt3__110shared_ptrI8hittableEE, symObjAddr: 0x924, symBinAddr: 0x100002A0C, symSize: 0x30 }
  - { offsetInCU: 0xE99C, offset: 0xE99C, size: 0x8, addend: 0x0, symName: __ZNSt3__110shared_ptrI8hittableEC1B7v160006I6spherevEEONS0_IT_EE, symObjAddr: 0x9A4, symBinAddr: 0x100002A8C, symSize: 0x34 }
  - { offsetInCU: 0xE9DF, offset: 0xE9DF, size: 0x8, addend: 0x0, symName: __ZNSt3__110shared_ptrI8hittableED1B7v160006Ev, symObjAddr: 0x9D8, symBinAddr: 0x100002AC0, symSize: 0x2C }
  - { offsetInCU: 0xEA09, offset: 0xEA09, size: 0x8, addend: 0x0, symName: __ZNSt3__110shared_ptrI6sphereED1B7v160006Ev, symObjAddr: 0xA04, symBinAddr: 0x100002AEC, symSize: 0x2C }
  - { offsetInCU: 0xEB5A, offset: 0xEB5A, size: 0x8, addend: 0x0, symName: __ZN6cameraC1Ev, symObjAddr: 0xAD0, symBinAddr: 0x100002BB8, symSize: 0x2C }
  - { offsetInCU: 0xEB86, offset: 0xEB86, size: 0x8, addend: 0x0, symName: __ZN6camera6renderERK8hittable, symObjAddr: 0xAFC, symBinAddr: 0x100002BE4, symSize: 0x1E8 }
  - { offsetInCU: 0xEC6B, offset: 0xEC6B, size: 0x8, addend: 0x0, symName: __ZNSt3__110shared_ptrI5metalED1B7v160006Ev, symObjAddr: 0xCE4, symBinAddr: 0x100002DCC, symSize: 0x2C }
  - { offsetInCU: 0xECB9, offset: 0xECB9, size: 0x8, addend: 0x0, symName: __ZNSt3__110shared_ptrI10dielectricED1B7v160006Ev, symObjAddr: 0xD10, symBinAddr: 0x100002DF8, symSize: 0x2C }
  - { offsetInCU: 0xED07, offset: 0xED07, size: 0x8, addend: 0x0, symName: __ZNSt3__110shared_ptrI10lambertianED1B7v160006Ev, symObjAddr: 0xD3C, symBinAddr: 0x100002E24, symSize: 0x2C }
  - { offsetInCU: 0xED31, offset: 0xED31, size: 0x8, addend: 0x0, symName: __ZN13hittable_listD1Ev, symObjAddr: 0xD68, symBinAddr: 0x100002E50, symSize: 0x2C }
  - { offsetInCU: 0xED5D, offset: 0xED5D, size: 0x8, addend: 0x0, symName: __ZN8intervalC2Edd, symObjAddr: 0xD94, symBinAddr: 0x100002E7C, symSize: 0x2C }
  - { offsetInCU: 0xEDA3, offset: 0xEDA3, size: 0x8, addend: 0x0, symName: __ZN13hittable_listC2Ev, symObjAddr: 0xDC0, symBinAddr: 0x100002EA8, symSize: 0x50 }
  - { offsetInCU: 0xEDCD, offset: 0xEDCD, size: 0x8, addend: 0x0, symName: __ZN8hittableC2Ev, symObjAddr: 0xE10, symBinAddr: 0x100002EF8, symSize: 0x24 }
  - { offsetInCU: 0xEDF9, offset: 0xEDF9, size: 0x8, addend: 0x0, symName: __ZNSt3__16vectorINS_10shared_ptrI8hittableEENS_9allocatorIS3_EEEC1B7v160006Ev, symObjAddr: 0xE34, symBinAddr: 0x100002F1C, symSize: 0x2C }
  - { offsetInCU: 0xEE23, offset: 0xEE23, size: 0x8, addend: 0x0, symName: __ZN13hittable_listD0Ev, symObjAddr: 0xE60, symBinAddr: 0x100002F48, symSize: 0x30 }
  - { offsetInCU: 0xEE4F, offset: 0xEE4F, size: 0x8, addend: 0x0, symName: __ZNK13hittable_list3hitERK3ray8intervalR10hit_record, symObjAddr: 0xE90, symBinAddr: 0x100002F78, symSize: 0x170 }
  - { offsetInCU: 0xEF19, offset: 0xEF19, size: 0x8, addend: 0x0, symName: __ZN8hittableD1Ev, symObjAddr: 0x1000, symBinAddr: 0x1000030E8, symSize: 0x14 }
  - { offsetInCU: 0xEF43, offset: 0xEF43, size: 0x8, addend: 0x0, symName: __ZN8hittableD0Ev, symObjAddr: 0x1014, symBinAddr: 0x1000030FC, symSize: 0xC }
  - { offsetInCU: 0xEF6D, offset: 0xEF6D, size: 0x8, addend: 0x0, symName: __ZNSt3__16vectorINS_10shared_ptrI8hittableEENS_9allocatorIS3_EEEC2B7v160006Ev, symObjAddr: 0x1020, symBinAddr: 0x100003108, symSize: 0x58 }
  - { offsetInCU: 0xEFA3, offset: 0xEFA3, size: 0x8, addend: 0x0, symName: __ZNSt3__117__compressed_pairIPNS_10shared_ptrI8hittableEENS_9allocatorIS3_EEEC1B7v160006IDnNS_18__default_init_tagEEEOT_OT0_, symObjAddr: 0x1078, symBinAddr: 0x100003160, symSize: 0x3C }
  - { offsetInCU: 0xEFFB, offset: 0xEFFB, size: 0x8, addend: 0x0, symName: __ZNSt3__117__compressed_pairIPNS_10shared_ptrI8hittableEENS_9allocatorIS3_EEEC2B7v160006IDnNS_18__default_init_tagEEEOT_OT0_, symObjAddr: 0x10D0, symBinAddr: 0x1000031B8, symSize: 0x40 }
  - { offsetInCU: 0xF053, offset: 0xF053, size: 0x8, addend: 0x0, symName: __ZNSt3__122__compressed_pair_elemIPNS_10shared_ptrI8hittableEELi0ELb0EEC2B7v160006IDnvEEOT_, symObjAddr: 0x1110, symBinAddr: 0x1000031F8, symSize: 0x1C }
  - { offsetInCU: 0xF095, offset: 0xF095, size: 0x8, addend: 0x0, symName: __ZNSt3__122__compressed_pair_elemINS_9allocatorINS_10shared_ptrI8hittableEEEELi1ELb1EEC2B7v160006ENS_18__default_init_tagE, symObjAddr: 0x112C, symBinAddr: 0x100003214, symSize: 0x2C }
  - { offsetInCU: 0xF0CA, offset: 0xF0CA, size: 0x8, addend: 0x0, symName: __ZNSt3__19allocatorINS_10shared_ptrI8hittableEEEC2B7v160006Ev, symObjAddr: 0x1158, symBinAddr: 0x100003240, symSize: 0x2C }
  - { offsetInCU: 0xF0F4, offset: 0xF0F4, size: 0x8, addend: 0x0, symName: __ZNSt3__116__non_trivial_ifILb1ENS_9allocatorINS_10shared_ptrI8hittableEEEEEC2B7v160006Ev, symObjAddr: 0x1184, symBinAddr: 0x10000326C, symSize: 0x14 }
  - { offsetInCU: 0xF11E, offset: 0xF11E, size: 0x8, addend: 0x0, symName: __ZN10hit_recordC1Ev, symObjAddr: 0x1198, symBinAddr: 0x100003280, symSize: 0x2C }
  - { offsetInCU: 0xF14A, offset: 0xF14A, size: 0x8, addend: 0x0, symName: __ZNKSt3__16vectorINS_10shared_ptrI8hittableEENS_9allocatorIS3_EEE5beginB7v160006Ev, symObjAddr: 0x11C4, symBinAddr: 0x1000032AC, symSize: 0x30 }
  - { offsetInCU: 0xF172, offset: 0xF172, size: 0x8, addend: 0x0, symName: __ZNKSt3__16vectorINS_10shared_ptrI8hittableEENS_9allocatorIS3_EEE3endB7v160006Ev, symObjAddr: 0x11F4, symBinAddr: 0x1000032DC, symSize: 0x30 }
  - { offsetInCU: 0xF19A, offset: 0xF19A, size: 0x8, addend: 0x0, symName: __ZNKSt3__111__wrap_iterIPKNS_10shared_ptrI8hittableEEEdeB7v160006Ev, symObjAddr: 0x1258, symBinAddr: 0x100003340, symSize: 0x18 }
  - { offsetInCU: 0xF1C0, offset: 0xF1C0, size: 0x8, addend: 0x0, symName: __ZNKSt3__110shared_ptrI8hittableEptB7v160006Ev, symObjAddr: 0x1270, symBinAddr: 0x100003358, symSize: 0x18 }
  - { offsetInCU: 0xF1E6, offset: 0xF1E6, size: 0x8, addend: 0x0, symName: __ZN10hit_recordaSERKS_, symObjAddr: 0x1288, symBinAddr: 0x100003370, symSize: 0x60 }
  - { offsetInCU: 0xF217, offset: 0xF217, size: 0x8, addend: 0x0, symName: __ZNSt3__111__wrap_iterIPKNS_10shared_ptrI8hittableEEEppB7v160006Ev, symObjAddr: 0x12E8, symBinAddr: 0x1000033D0, symSize: 0x20 }
  - { offsetInCU: 0xF23D, offset: 0xF23D, size: 0x8, addend: 0x0, symName: __ZN10hit_recordD1Ev, symObjAddr: 0x1308, symBinAddr: 0x1000033F0, symSize: 0x2C }
  - { offsetInCU: 0xF269, offset: 0xF269, size: 0x8, addend: 0x0, symName: __ZN10hit_recordC2Ev, symObjAddr: 0x1334, symBinAddr: 0x10000341C, symSize: 0x44 }
  - { offsetInCU: 0xF295, offset: 0xF295, size: 0x8, addend: 0x0, symName: __ZN4vec3C1Ev, symObjAddr: 0x1378, symBinAddr: 0x100003460, symSize: 0x2C }
  - { offsetInCU: 0xF2BF, offset: 0xF2BF, size: 0x8, addend: 0x0, symName: __ZNSt3__110shared_ptrI8materialEC1B7v160006Ev, symObjAddr: 0x13A4, symBinAddr: 0x10000348C, symSize: 0x2C }
  - { offsetInCU: 0xF2E9, offset: 0xF2E9, size: 0x8, addend: 0x0, symName: __ZN4vec3C2Ev, symObjAddr: 0x13D0, symBinAddr: 0x1000034B8, symSize: 0x38 }
  - { offsetInCU: 0xF313, offset: 0xF313, size: 0x8, addend: 0x0, symName: __ZNSt3__110shared_ptrI8materialEC2B7v160006Ev, symObjAddr: 0x1408, symBinAddr: 0x1000034F0, symSize: 0x1C }
  - { offsetInCU: 0xF33D, offset: 0xF33D, size: 0x8, addend: 0x0, symName: __ZNKSt3__16vectorINS_10shared_ptrI8hittableEENS_9allocatorIS3_EEE11__make_iterB7v160006EPKS3_, symObjAddr: 0x1424, symBinAddr: 0x10000350C, symSize: 0x34 }
  - { offsetInCU: 0xF372, offset: 0xF372, size: 0x8, addend: 0x0, symName: __ZNSt3__111__wrap_iterIPKNS_10shared_ptrI8hittableEEEC1B7v160006EPKvS5_, symObjAddr: 0x1458, symBinAddr: 0x100003540, symSize: 0x3C }
  - { offsetInCU: 0xF3B8, offset: 0xF3B8, size: 0x8, addend: 0x0, symName: __ZNSt3__111__wrap_iterIPKNS_10shared_ptrI8hittableEEEC2B7v160006EPKvS5_, symObjAddr: 0x1494, symBinAddr: 0x10000357C, symSize: 0x24 }
  - { offsetInCU: 0xF3FE, offset: 0xF3FE, size: 0x8, addend: 0x0, symName: __ZNKSt3__111__wrap_iterIPKNS_10shared_ptrI8hittableEEE4baseB7v160006Ev, symObjAddr: 0x1500, symBinAddr: 0x1000035E8, symSize: 0x18 }
  - { offsetInCU: 0xF424, offset: 0xF424, size: 0x8, addend: 0x0, symName: __ZNSt3__110shared_ptrI8materialEaSB7v160006ERKS2_, symObjAddr: 0x1518, symBinAddr: 0x100003600, symSize: 0x50 }
  - { offsetInCU: 0xF459, offset: 0xF459, size: 0x8, addend: 0x0, symName: __ZNSt3__110shared_ptrI8materialEC1B7v160006ERKS2_, symObjAddr: 0x1568, symBinAddr: 0x100003650, symSize: 0x34 }
  - { offsetInCU: 0xF492, offset: 0xF492, size: 0x8, addend: 0x0, symName: __ZNSt3__110shared_ptrI8materialE4swapB7v160006ERS2_, symObjAddr: 0x159C, symBinAddr: 0x100003684, symSize: 0x44 }
  - { offsetInCU: 0xF4C7, offset: 0xF4C7, size: 0x8, addend: 0x0, symName: __ZNSt3__110shared_ptrI8materialED1B7v160006Ev, symObjAddr: 0x15E0, symBinAddr: 0x1000036C8, symSize: 0x2C }
  - { offsetInCU: 0xF4F1, offset: 0xF4F1, size: 0x8, addend: 0x0, symName: __ZNSt3__110shared_ptrI8materialEC2B7v160006ERKS2_, symObjAddr: 0x160C, symBinAddr: 0x1000036F4, symSize: 0x70 }
  - { offsetInCU: 0xF52A, offset: 0xF52A, size: 0x8, addend: 0x0, symName: __ZNSt3__119__shared_weak_count12__add_sharedB7v160006Ev, symObjAddr: 0x167C, symBinAddr: 0x100003764, symSize: 0x24 }
  - { offsetInCU: 0xF550, offset: 0xF550, size: 0x8, addend: 0x0, symName: __ZNSt3__114__shared_count12__add_sharedB7v160006Ev, symObjAddr: 0x16A0, symBinAddr: 0x100003788, symSize: 0x28 }
  - { offsetInCU: 0xF576, offset: 0xF576, size: 0x8, addend: 0x0, symName: __ZNSt3__110shared_ptrI8materialED2B7v160006Ev, symObjAddr: 0x1770, symBinAddr: 0x100003858, symSize: 0x54 }
  - { offsetInCU: 0xF5A0, offset: 0xF5A0, size: 0x8, addend: 0x0, symName: __ZNSt3__119__shared_weak_count16__release_sharedB7v160006Ev, symObjAddr: 0x17C4, symBinAddr: 0x1000038AC, symSize: 0x3C }
  - { offsetInCU: 0xF5C6, offset: 0xF5C6, size: 0x8, addend: 0x0, symName: __ZNSt3__114__shared_count16__release_sharedB7v160006Ev, symObjAddr: 0x1800, symBinAddr: 0x1000038E8, symSize: 0x7C }
  - { offsetInCU: 0xF5EC, offset: 0xF5EC, size: 0x8, addend: 0x0, symName: __ZN10hit_recordD2Ev, symObjAddr: 0x18AC, symBinAddr: 0x100003994, symSize: 0x30 }
  - { offsetInCU: 0xF618, offset: 0xF618, size: 0x8, addend: 0x0, symName: __ZN4vec3C2Eddd, symObjAddr: 0x18DC, symBinAddr: 0x1000039C4, symSize: 0x38 }
  - { offsetInCU: 0xF66C, offset: 0xF66C, size: 0x8, addend: 0x0, symName: __ZNSt3__16vectorINS_10shared_ptrI8hittableEENS_9allocatorIS3_EEE9push_backB7v160006ERKS3_, symObjAddr: 0x1914, symBinAddr: 0x1000039FC, symSize: 0x6C }
  - { offsetInCU: 0xF6A3, offset: 0xF6A3, size: 0x8, addend: 0x0, symName: __ZNSt3__16vectorINS_10shared_ptrI8hittableEENS_9allocatorIS3_EEE9__end_capB7v160006Ev, symObjAddr: 0x1980, symBinAddr: 0x100003A68, symSize: 0x28 }
  - { offsetInCU: 0xF6C9, offset: 0xF6C9, size: 0x8, addend: 0x0, symName: __ZNSt3__16vectorINS_10shared_ptrI8hittableEENS_9allocatorIS3_EEE22__construct_one_at_endB7v160006IJRKS3_EEEvDpOT_, symObjAddr: 0x19A8, symBinAddr: 0x100003A90, symSize: 0x90 }
  - { offsetInCU: 0xF718, offset: 0xF718, size: 0x8, addend: 0x0, symName: __ZNSt3__16vectorINS_10shared_ptrI8hittableEENS_9allocatorIS3_EEE21__push_back_slow_pathIRKS3_EEvOT_, symObjAddr: 0x1A38, symBinAddr: 0x100003B20, symSize: 0xD8 }
  - { offsetInCU: 0xF776, offset: 0xF776, size: 0x8, addend: 0x0, symName: __ZNSt3__117__compressed_pairIPNS_10shared_ptrI8hittableEENS_9allocatorIS3_EEE5firstB7v160006Ev, symObjAddr: 0x1B10, symBinAddr: 0x100003BF8, symSize: 0x24 }
  - { offsetInCU: 0xF79C, offset: 0xF79C, size: 0x8, addend: 0x0, symName: __ZNSt3__122__compressed_pair_elemIPNS_10shared_ptrI8hittableEELi0ELb0EE5__getB7v160006Ev, symObjAddr: 0x1B34, symBinAddr: 0x100003C1C, symSize: 0x14 }
  - { offsetInCU: 0xF7DB, offset: 0xF7DB, size: 0x8, addend: 0x0, symName: __ZNSt3__16vectorINS_10shared_ptrI8hittableEENS_9allocatorIS3_EEE21_ConstructTransactionC1B7v160006ERS6_m, symObjAddr: 0x1B48, symBinAddr: 0x100003C30, symSize: 0x3C }
  - { offsetInCU: 0xF823, offset: 0xF823, size: 0x8, addend: 0x0, symName: __ZNSt3__116allocator_traitsINS_9allocatorINS_10shared_ptrI8hittableEEEEE9constructB7v160006IS4_JRKS4_EvEEvRS5_PT_DpOT0_, symObjAddr: 0x1B84, symBinAddr: 0x100003C6C, symSize: 0x34 }
  - { offsetInCU: 0xF87A, offset: 0xF87A, size: 0x8, addend: 0x0, symName: __ZNSt3__16vectorINS_10shared_ptrI8hittableEENS_9allocatorIS3_EEE7__allocB7v160006Ev, symObjAddr: 0x1BB8, symBinAddr: 0x100003CA0, symSize: 0x28 }
  - { offsetInCU: 0xF8A0, offset: 0xF8A0, size: 0x8, addend: 0x0, symName: __ZNSt3__16vectorINS_10shared_ptrI8hittableEENS_9allocatorIS3_EEE21_ConstructTransactionD1B7v160006Ev, symObjAddr: 0x1BF4, symBinAddr: 0x100003CDC, symSize: 0x2C }
  - { offsetInCU: 0xF8CA, offset: 0xF8CA, size: 0x8, addend: 0x0, symName: __ZNSt3__16vectorINS_10shared_ptrI8hittableEENS_9allocatorIS3_EEE21_ConstructTransactionC2B7v160006ERS6_m, symObjAddr: 0x1C20, symBinAddr: 0x100003D08, symSize: 0x44 }
  - { offsetInCU: 0xF912, offset: 0xF912, size: 0x8, addend: 0x0, symName: __ZNSt3__19allocatorINS_10shared_ptrI8hittableEEE9constructB7v160006IS3_JRKS3_EEEvPT_DpOT0_, symObjAddr: 0x1C64, symBinAddr: 0x100003D4C, symSize: 0x30 }
  - { offsetInCU: 0xF968, offset: 0xF968, size: 0x8, addend: 0x0, symName: __ZNSt3__110shared_ptrI8hittableEC1B7v160006ERKS2_, symObjAddr: 0x1C94, symBinAddr: 0x100003D7C, symSize: 0x34 }
  - { offsetInCU: 0xF9A1, offset: 0xF9A1, size: 0x8, addend: 0x0, symName: __ZNSt3__110shared_ptrI8hittableEC2B7v160006ERKS2_, symObjAddr: 0x1CC8, symBinAddr: 0x100003DB0, symSize: 0x70 }
  - { offsetInCU: 0xF9DA, offset: 0xF9DA, size: 0x8, addend: 0x0, symName: __ZNSt3__117__compressed_pairIPNS_10shared_ptrI8hittableEENS_9allocatorIS3_EEE6secondB7v160006Ev, symObjAddr: 0x1D38, symBinAddr: 0x100003E20, symSize: 0x24 }
  - { offsetInCU: 0xFA00, offset: 0xFA00, size: 0x8, addend: 0x0, symName: __ZNSt3__122__compressed_pair_elemINS_9allocatorINS_10shared_ptrI8hittableEEEELi1ELb1EE5__getB7v160006Ev, symObjAddr: 0x1D5C, symBinAddr: 0x100003E44, symSize: 0x14 }
  - { offsetInCU: 0xFA26, offset: 0xFA26, size: 0x8, addend: 0x0, symName: __ZNSt3__16vectorINS_10shared_ptrI8hittableEENS_9allocatorIS3_EEE21_ConstructTransactionD2B7v160006Ev, symObjAddr: 0x1D70, symBinAddr: 0x100003E58, symSize: 0x20 }
  - { offsetInCU: 0xFA50, offset: 0xFA50, size: 0x8, addend: 0x0, symName: __ZNKSt3__16vectorINS_10shared_ptrI8hittableEENS_9allocatorIS3_EEE11__recommendB7v160006Em, symObjAddr: 0x1D90, symBinAddr: 0x100003E78, symSize: 0xB4 }
  - { offsetInCU: 0xFAA5, offset: 0xFAA5, size: 0x8, addend: 0x0, symName: __ZNKSt3__16vectorINS_10shared_ptrI8hittableEENS_9allocatorIS3_EEE4sizeB7v160006Ev, symObjAddr: 0x1E44, symBinAddr: 0x100003F2C, symSize: 0x28 }
  - { offsetInCU: 0xFACB, offset: 0xFACB, size: 0x8, addend: 0x0, symName: __ZNSt3__114__split_bufferINS_10shared_ptrI8hittableEERNS_9allocatorIS3_EEEC1EmmS6_, symObjAddr: 0x1E6C, symBinAddr: 0x100003F54, symSize: 0x44 }
  - { offsetInCU: 0xFB21, offset: 0xFB21, size: 0x8, addend: 0x0, symName: __ZNSt3__114__split_bufferINS_10shared_ptrI8hittableEERNS_9allocatorIS3_EEED1Ev, symObjAddr: 0x1FC8, symBinAddr: 0x1000040B0, symSize: 0x2C }
  - { offsetInCU: 0xFB4D, offset: 0xFB4D, size: 0x8, addend: 0x0, symName: __ZNKSt3__16vectorINS_10shared_ptrI8hittableEENS_9allocatorIS3_EEE8max_sizeEv, symObjAddr: 0x1FF4, symBinAddr: 0x1000040DC, symSize: 0x60 }
  - { offsetInCU: 0xFB75, offset: 0xFB75, size: 0x8, addend: 0x0, symName: __ZNKSt3__16vectorINS_10shared_ptrI8hittableEENS_9allocatorIS3_EEE20__throw_length_errorB7v160006Ev, symObjAddr: 0x2054, symBinAddr: 0x10000413C, symSize: 0x1C }
  - { offsetInCU: 0xFB9B, offset: 0xFB9B, size: 0x8, addend: 0x0, symName: __ZNKSt3__16vectorINS_10shared_ptrI8hittableEENS_9allocatorIS3_EEE8capacityB7v160006Ev, symObjAddr: 0x2070, symBinAddr: 0x100004158, symSize: 0x40 }
  - { offsetInCU: 0xFBCB, offset: 0xFBCB, size: 0x8, addend: 0x0, symName: __ZNSt3__116allocator_traitsINS_9allocatorINS_10shared_ptrI8hittableEEEEE8max_sizeB7v160006IS5_vEEmRKS5_, symObjAddr: 0x2108, symBinAddr: 0x1000041F0, symSize: 0x24 }
  - { offsetInCU: 0xFBF9, offset: 0xFBF9, size: 0x8, addend: 0x0, symName: __ZNKSt3__16vectorINS_10shared_ptrI8hittableEENS_9allocatorIS3_EEE7__allocB7v160006Ev, symObjAddr: 0x212C, symBinAddr: 0x100004214, symSize: 0x28 }
  - { offsetInCU: 0xFC1F, offset: 0xFC1F, size: 0x8, addend: 0x0, symName: __ZNSt3__114numeric_limitsIlE3maxB7v160006Ev, symObjAddr: 0x2154, symBinAddr: 0x10000423C, symSize: 0x14 }
  - { offsetInCU: 0xFC47, offset: 0xFC47, size: 0x8, addend: 0x0, symName: __ZNKSt3__16__lessImmEclB7v160006ERKmS3_, symObjAddr: 0x21BC, symBinAddr: 0x1000042A4, symSize: 0x34 }
  - { offsetInCU: 0xFC89, offset: 0xFC89, size: 0x8, addend: 0x0, symName: __ZNKSt3__19allocatorINS_10shared_ptrI8hittableEEE8max_sizeB7v160006Ev, symObjAddr: 0x21F0, symBinAddr: 0x1000042D8, symSize: 0x14 }
  - { offsetInCU: 0xFCAF, offset: 0xFCAF, size: 0x8, addend: 0x0, symName: __ZNKSt3__117__compressed_pairIPNS_10shared_ptrI8hittableEENS_9allocatorIS3_EEE6secondB7v160006Ev, symObjAddr: 0x2204, symBinAddr: 0x1000042EC, symSize: 0x24 }
  - { offsetInCU: 0xFCD5, offset: 0xFCD5, size: 0x8, addend: 0x0, symName: __ZNKSt3__122__compressed_pair_elemINS_9allocatorINS_10shared_ptrI8hittableEEEELi1ELb1EE5__getB7v160006Ev, symObjAddr: 0x2228, symBinAddr: 0x100004310, symSize: 0x14 }
  - { offsetInCU: 0xFCFB, offset: 0xFCFB, size: 0x8, addend: 0x0, symName: __ZNSt3__123__libcpp_numeric_limitsIlLb1EE3maxB7v160006Ev, symObjAddr: 0x223C, symBinAddr: 0x100004324, symSize: 0x8 }
  - { offsetInCU: 0xFD0F, offset: 0xFD0F, size: 0x8, addend: 0x0, symName: __ZNSt12length_errorC1B7v160006EPKc, symObjAddr: 0x22A8, symBinAddr: 0x100004390, symSize: 0x34 }
  - { offsetInCU: 0xFD47, offset: 0xFD47, size: 0x8, addend: 0x0, symName: __ZNSt12length_errorC2B7v160006EPKc, symObjAddr: 0x22DC, symBinAddr: 0x1000043C4, symSize: 0x4C }
  - { offsetInCU: 0xFD7F, offset: 0xFD7F, size: 0x8, addend: 0x0, symName: __ZNKSt3__16vectorINS_10shared_ptrI8hittableEENS_9allocatorIS3_EEE9__end_capB7v160006Ev, symObjAddr: 0x2328, symBinAddr: 0x100004410, symSize: 0x28 }
  - { offsetInCU: 0xFDA5, offset: 0xFDA5, size: 0x8, addend: 0x0, symName: __ZNKSt3__117__compressed_pairIPNS_10shared_ptrI8hittableEENS_9allocatorIS3_EEE5firstB7v160006Ev, symObjAddr: 0x2350, symBinAddr: 0x100004438, symSize: 0x24 }
  - { offsetInCU: 0xFDCB, offset: 0xFDCB, size: 0x8, addend: 0x0, symName: __ZNKSt3__122__compressed_pair_elemIPNS_10shared_ptrI8hittableEELi0ELb0EE5__getB7v160006Ev, symObjAddr: 0x2374, symBinAddr: 0x10000445C, symSize: 0x14 }
  - { offsetInCU: 0xFDF1, offset: 0xFDF1, size: 0x8, addend: 0x0, symName: __ZNSt3__114__split_bufferINS_10shared_ptrI8hittableEERNS_9allocatorIS3_EEEC2EmmS6_, symObjAddr: 0x23DC, symBinAddr: 0x1000044C4, symSize: 0xD4 }
  - { offsetInCU: 0xFE64, offset: 0xFE64, size: 0x8, addend: 0x0, symName: __ZNSt3__117__compressed_pairIPNS_10shared_ptrI8hittableEERNS_9allocatorIS3_EEEC1B7v160006IDnS7_EEOT_OT0_, symObjAddr: 0x24B0, symBinAddr: 0x100004598, symSize: 0x3C }
  - { offsetInCU: 0xFEBC, offset: 0xFEBC, size: 0x8, addend: 0x0, symName: __ZNSt3__114__split_bufferINS_10shared_ptrI8hittableEERNS_9allocatorIS3_EEE7__allocB7v160006Ev, symObjAddr: 0x252C, symBinAddr: 0x100004614, symSize: 0x28 }
  - { offsetInCU: 0xFEE2, offset: 0xFEE2, size: 0x8, addend: 0x0, symName: __ZNSt3__114__split_bufferINS_10shared_ptrI8hittableEERNS_9allocatorIS3_EEE9__end_capB7v160006Ev, symObjAddr: 0x2554, symBinAddr: 0x10000463C, symSize: 0x28 }
  - { offsetInCU: 0xFF08, offset: 0xFF08, size: 0x8, addend: 0x0, symName: __ZNSt3__117__compressed_pairIPNS_10shared_ptrI8hittableEERNS_9allocatorIS3_EEEC2B7v160006IDnS7_EEOT_OT0_, symObjAddr: 0x257C, symBinAddr: 0x100004664, symSize: 0x48 }
  - { offsetInCU: 0xFF60, offset: 0xFF60, size: 0x8, addend: 0x0, symName: __ZNSt3__122__compressed_pair_elemIRNS_9allocatorINS_10shared_ptrI8hittableEEEELi1ELb0EEC2B7v160006IS6_vEEOT_, symObjAddr: 0x25C4, symBinAddr: 0x1000046AC, symSize: 0x20 }
  - { offsetInCU: 0xFFA2, offset: 0xFFA2, size: 0x8, addend: 0x0, symName: __ZNSt3__19allocatorINS_10shared_ptrI8hittableEEE8allocateB7v160006Em, symObjAddr: 0x25E4, symBinAddr: 0x1000046CC, symSize: 0x58 }
  - { offsetInCU: 0xFFD6, offset: 0xFFD6, size: 0x8, addend: 0x0, symName: __ZNSt3__117__compressed_pairIPNS_10shared_ptrI8hittableEERNS_9allocatorIS3_EEE6secondB7v160006Ev, symObjAddr: 0x2740, symBinAddr: 0x100004828, symSize: 0x28 }
  - { offsetInCU: 0xFFFC, offset: 0xFFFC, size: 0x8, addend: 0x0, symName: __ZNSt3__122__compressed_pair_elemIRNS_9allocatorINS_10shared_ptrI8hittableEEEELi1ELb0EE5__getB7v160006Ev, symObjAddr: 0x2768, symBinAddr: 0x100004850, symSize: 0x18 }
  - { offsetInCU: 0x10022, offset: 0x10022, size: 0x8, addend: 0x0, symName: __ZNSt3__117__compressed_pairIPNS_10shared_ptrI8hittableEERNS_9allocatorIS3_EEE5firstB7v160006Ev, symObjAddr: 0x2780, symBinAddr: 0x100004868, symSize: 0x24 }
  - { offsetInCU: 0x10048, offset: 0x10048, size: 0x8, addend: 0x0, symName: __ZNKSt3__16vectorINS_10shared_ptrI8hittableEENS_9allocatorIS3_EEE17__annotate_deleteB7v160006Ev, symObjAddr: 0x27A4, symBinAddr: 0x10000488C, symSize: 0xB8 }
  - { offsetInCU: 0x1006E, offset: 0x1006E, size: 0x8, addend: 0x0, symName: __ZNSt3__116reverse_iteratorIPNS_10shared_ptrI8hittableEEEC1B7v160006ES4_, symObjAddr: 0x2988, symBinAddr: 0x100004A70, symSize: 0x34 }
  - { offsetInCU: 0x100A6, offset: 0x100A6, size: 0x8, addend: 0x0, symName: __ZNKSt3__116reverse_iteratorIPNS_10shared_ptrI8hittableEEE4baseB7v160006Ev, symObjAddr: 0x29BC, symBinAddr: 0x100004AA4, symSize: 0x18 }
  - { offsetInCU: 0x100CC, offset: 0x100CC, size: 0x8, addend: 0x0, symName: __ZNKSt3__16vectorINS_10shared_ptrI8hittableEENS_9allocatorIS3_EEE14__annotate_newB7v160006Em, symObjAddr: 0x2A10, symBinAddr: 0x100004AF8, symSize: 0xAC }
  - { offsetInCU: 0x10101, offset: 0x10101, size: 0x8, addend: 0x0, symName: __ZNKSt3__16vectorINS_10shared_ptrI8hittableEENS_9allocatorIS3_EEE31__annotate_contiguous_containerB7v160006EPKvS8_S8_S8_, symObjAddr: 0x2ACC, symBinAddr: 0x100004BB4, symSize: 0x20 }
  - { offsetInCU: 0x10157, offset: 0x10157, size: 0x8, addend: 0x0, symName: __ZNKSt3__16vectorINS_10shared_ptrI8hittableEENS_9allocatorIS3_EEE4dataB7v160006Ev, symObjAddr: 0x2AEC, symBinAddr: 0x100004BD4, symSize: 0x28 }
  - { offsetInCU: 0x1017D, offset: 0x1017D, size: 0x8, addend: 0x0, symName: __ZNSt3__129_AllocatorDestroyRangeReverseINS_9allocatorINS_10shared_ptrI8hittableEEEENS_16reverse_iteratorIPS4_EEEC1B7v160006ERS5_RS8_SB_, symObjAddr: 0x2B60, symBinAddr: 0x100004C48, symSize: 0x44 }
  - { offsetInCU: 0x101D4, offset: 0x101D4, size: 0x8, addend: 0x0, symName: __ZNSt3__116allocator_traitsINS_9allocatorINS_10shared_ptrI8hittableEEEEE9constructB7v160006IS4_JS4_EvEEvRS5_PT_DpOT0_, symObjAddr: 0x2BEC, symBinAddr: 0x100004CD4, symSize: 0x34 }
  - { offsetInCU: 0x1022B, offset: 0x1022B, size: 0x8, addend: 0x0, symName: __ZNKSt3__116reverse_iteratorIPNS_10shared_ptrI8hittableEEEdeB7v160006Ev, symObjAddr: 0x2C44, symBinAddr: 0x100004D2C, symSize: 0x28 }
  - { offsetInCU: 0x1025F, offset: 0x1025F, size: 0x8, addend: 0x0, symName: __ZNSt3__116reverse_iteratorIPNS_10shared_ptrI8hittableEEEppB7v160006Ev, symObjAddr: 0x2C6C, symBinAddr: 0x100004D54, symSize: 0x20 }
  - { offsetInCU: 0x10285, offset: 0x10285, size: 0x8, addend: 0x0, symName: __ZNSt3__128__exception_guard_exceptionsINS_29_AllocatorDestroyRangeReverseINS_9allocatorINS_10shared_ptrI8hittableEEEENS_16reverse_iteratorIPS5_EEEEE10__completeB7v160006Ev, symObjAddr: 0x2C8C, symBinAddr: 0x100004D74, symSize: 0x1C }
  - { offsetInCU: 0x102AB, offset: 0x102AB, size: 0x8, addend: 0x0, symName: __ZNSt3__128__exception_guard_exceptionsINS_29_AllocatorDestroyRangeReverseINS_9allocatorINS_10shared_ptrI8hittableEEEENS_16reverse_iteratorIPS5_EEEEED1B7v160006Ev, symObjAddr: 0x2CA8, symBinAddr: 0x100004D90, symSize: 0x2C }
  - { offsetInCU: 0x102D5, offset: 0x102D5, size: 0x8, addend: 0x0, symName: __ZNSt3__128__exception_guard_exceptionsINS_29_AllocatorDestroyRangeReverseINS_9allocatorINS_10shared_ptrI8hittableEEEENS_16reverse_iteratorIPS5_EEEEEC1B7v160006ESA_, symObjAddr: 0x2CD4, symBinAddr: 0x100004DBC, symSize: 0x34 }
  - { offsetInCU: 0x1030E, offset: 0x1030E, size: 0x8, addend: 0x0, symName: __ZNSt3__128__exception_guard_exceptionsINS_29_AllocatorDestroyRangeReverseINS_9allocatorINS_10shared_ptrI8hittableEEEENS_16reverse_iteratorIPS5_EEEEEC2B7v160006ESA_, symObjAddr: 0x2D08, symBinAddr: 0x100004DF0, symSize: 0x30 }
  - { offsetInCU: 0x10347, offset: 0x10347, size: 0x8, addend: 0x0, symName: __ZNSt3__129_AllocatorDestroyRangeReverseINS_9allocatorINS_10shared_ptrI8hittableEEEENS_16reverse_iteratorIPS4_EEEC2B7v160006ERS5_RS8_SB_, symObjAddr: 0x2D38, symBinAddr: 0x100004E20, symSize: 0x38 }
  - { offsetInCU: 0x1039E, offset: 0x1039E, size: 0x8, addend: 0x0, symName: __ZNSt3__19allocatorINS_10shared_ptrI8hittableEEE9constructB7v160006IS3_JS3_EEEvPT_DpOT0_, symObjAddr: 0x2D70, symBinAddr: 0x100004E58, symSize: 0x30 }
  - { offsetInCU: 0x103F4, offset: 0x103F4, size: 0x8, addend: 0x0, symName: __ZNSt3__110shared_ptrI8hittableEC1B7v160006EOS2_, symObjAddr: 0x2DA0, symBinAddr: 0x100004E88, symSize: 0x34 }
  - { offsetInCU: 0x1042D, offset: 0x1042D, size: 0x8, addend: 0x0, symName: __ZNSt3__110shared_ptrI8hittableEC2B7v160006EOS2_, symObjAddr: 0x2DD4, symBinAddr: 0x100004EBC, symSize: 0x40 }
  - { offsetInCU: 0x1046B, offset: 0x1046B, size: 0x8, addend: 0x0, symName: __ZNSt3__119__to_address_helperINS_16reverse_iteratorIPNS_10shared_ptrI8hittableEEEEvE6__callB7v160006ERKS6_, symObjAddr: 0x2E14, symBinAddr: 0x100004EFC, symSize: 0x38 }
  - { offsetInCU: 0x1048E, offset: 0x1048E, size: 0x8, addend: 0x0, symName: __ZNKSt3__116reverse_iteratorIPNS_10shared_ptrI8hittableEEEptB7v160006Ev, symObjAddr: 0x2E4C, symBinAddr: 0x100004F34, symSize: 0x24 }
  - { offsetInCU: 0x104B4, offset: 0x104B4, size: 0x8, addend: 0x0, symName: __ZNSt3__128__exception_guard_exceptionsINS_29_AllocatorDestroyRangeReverseINS_9allocatorINS_10shared_ptrI8hittableEEEENS_16reverse_iteratorIPS5_EEEEED2B7v160006Ev, symObjAddr: 0x2E70, symBinAddr: 0x100004F58, symSize: 0x50 }
  - { offsetInCU: 0x104DE, offset: 0x104DE, size: 0x8, addend: 0x0, symName: __ZNKSt3__129_AllocatorDestroyRangeReverseINS_9allocatorINS_10shared_ptrI8hittableEEEENS_16reverse_iteratorIPS4_EEEclB7v160006Ev, symObjAddr: 0x2EC0, symBinAddr: 0x100004FA8, symSize: 0xB4 }
  - { offsetInCU: 0x10505, offset: 0x10505, size: 0x8, addend: 0x0, symName: __ZNSt3__116reverse_iteratorINS0_IPNS_10shared_ptrI8hittableEEEEEC1B7v160006ES5_, symObjAddr: 0x2FE4, symBinAddr: 0x1000050CC, symSize: 0x3C }
  - { offsetInCU: 0x1053D, offset: 0x1053D, size: 0x8, addend: 0x0, symName: __ZNSt3__116allocator_traitsINS_9allocatorINS_10shared_ptrI8hittableEEEEE7destroyB7v160006IS4_vEEvRS5_PT_, symObjAddr: 0x3080, symBinAddr: 0x100005168, symSize: 0x2C }
  - { offsetInCU: 0x1057A, offset: 0x1057A, size: 0x8, addend: 0x0, symName: __ZNSt3__116reverse_iteratorINS0_IPNS_10shared_ptrI8hittableEEEEEppB7v160006Ev, symObjAddr: 0x30D0, symBinAddr: 0x1000051B8, symSize: 0x30 }
  - { offsetInCU: 0x105A0, offset: 0x105A0, size: 0x8, addend: 0x0, symName: __ZNKSt3__116reverse_iteratorINS0_IPNS_10shared_ptrI8hittableEEEEE4baseB7v160006Ev, symObjAddr: 0x3100, symBinAddr: 0x1000051E8, symSize: 0x24 }
  - { offsetInCU: 0x105C6, offset: 0x105C6, size: 0x8, addend: 0x0, symName: __ZNSt3__19allocatorINS_10shared_ptrI8hittableEEE7destroyB7v160006EPS3_, symObjAddr: 0x3124, symBinAddr: 0x10000520C, symSize: 0x28 }
  - { offsetInCU: 0x105FF, offset: 0x105FF, size: 0x8, addend: 0x0, symName: __ZNSt3__119__to_address_helperINS_16reverse_iteratorINS1_IPNS_10shared_ptrI8hittableEEEEEEvE6__callB7v160006ERKS7_, symObjAddr: 0x314C, symBinAddr: 0x100005234, symSize: 0x38 }
  - { offsetInCU: 0x10622, offset: 0x10622, size: 0x8, addend: 0x0, symName: __ZNKSt3__116reverse_iteratorINS0_IPNS_10shared_ptrI8hittableEEEEEptB7v160006Ev, symObjAddr: 0x3184, symBinAddr: 0x10000526C, symSize: 0x24 }
  - { offsetInCU: 0x10648, offset: 0x10648, size: 0x8, addend: 0x0, symName: __ZNKSt3__116reverse_iteratorINS0_IPNS_10shared_ptrI8hittableEEEEEdeB7v160006Ev, symObjAddr: 0x31A8, symBinAddr: 0x100005290, symSize: 0x34 }
  - { offsetInCU: 0x1067C, offset: 0x1067C, size: 0x8, addend: 0x0, symName: __ZNSt3__116reverse_iteratorIPNS_10shared_ptrI8hittableEEEmmB7v160006Ev, symObjAddr: 0x31DC, symBinAddr: 0x1000052C4, symSize: 0x20 }
  - { offsetInCU: 0x106A2, offset: 0x106A2, size: 0x8, addend: 0x0, symName: __ZNSt3__116reverse_iteratorINS0_IPNS_10shared_ptrI8hittableEEEEEC2B7v160006ES5_, symObjAddr: 0x31FC, symBinAddr: 0x1000052E4, symSize: 0x2C }
  - { offsetInCU: 0x106DA, offset: 0x106DA, size: 0x8, addend: 0x0, symName: __ZNSt3__116reverse_iteratorIPNS_10shared_ptrI8hittableEEEC2B7v160006ES4_, symObjAddr: 0x3228, symBinAddr: 0x100005310, symSize: 0x28 }
  - { offsetInCU: 0x10712, offset: 0x10712, size: 0x8, addend: 0x0, symName: __ZNSt3__114__split_bufferINS_10shared_ptrI8hittableEERNS_9allocatorIS3_EEED2Ev, symObjAddr: 0x3250, symBinAddr: 0x100005338, symSize: 0x8C }
  - { offsetInCU: 0x1073E, offset: 0x1073E, size: 0x8, addend: 0x0, symName: __ZNSt3__114__split_bufferINS_10shared_ptrI8hittableEERNS_9allocatorIS3_EEE5clearB7v160006Ev, symObjAddr: 0x32DC, symBinAddr: 0x1000053C4, symSize: 0x28 }
  - { offsetInCU: 0x10764, offset: 0x10764, size: 0x8, addend: 0x0, symName: __ZNSt3__116allocator_traitsINS_9allocatorINS_10shared_ptrI8hittableEEEEE10deallocateB7v160006ERS5_PS4_m, symObjAddr: 0x3304, symBinAddr: 0x1000053EC, symSize: 0x34 }
  - { offsetInCU: 0x107A6, offset: 0x107A6, size: 0x8, addend: 0x0, symName: __ZNKSt3__114__split_bufferINS_10shared_ptrI8hittableEERNS_9allocatorIS3_EEE8capacityB7v160006Ev, symObjAddr: 0x3338, symBinAddr: 0x100005420, symSize: 0x40 }
  - { offsetInCU: 0x107CC, offset: 0x107CC, size: 0x8, addend: 0x0, symName: __ZNSt3__114__split_bufferINS_10shared_ptrI8hittableEERNS_9allocatorIS3_EEE17__destruct_at_endB7v160006EPS3_, symObjAddr: 0x3378, symBinAddr: 0x100005460, symSize: 0x2C }
  - { offsetInCU: 0x10800, offset: 0x10800, size: 0x8, addend: 0x0, symName: __ZNSt3__114__split_bufferINS_10shared_ptrI8hittableEERNS_9allocatorIS3_EEE17__destruct_at_endB7v160006EPS3_NS_17integral_constantIbLb0EEE, symObjAddr: 0x33A4, symBinAddr: 0x10000548C, symSize: 0x80 }
  - { offsetInCU: 0x10841, offset: 0x10841, size: 0x8, addend: 0x0, symName: __ZNSt3__19allocatorINS_10shared_ptrI8hittableEEE10deallocateB7v160006EPS3_m, symObjAddr: 0x3424, symBinAddr: 0x10000550C, symSize: 0x40 }
  - { offsetInCU: 0x10883, offset: 0x10883, size: 0x8, addend: 0x0, symName: __ZNKSt3__114__split_bufferINS_10shared_ptrI8hittableEERNS_9allocatorIS3_EEE9__end_capB7v160006Ev, symObjAddr: 0x356C, symBinAddr: 0x100005654, symSize: 0x28 }
  - { offsetInCU: 0x108A9, offset: 0x108A9, size: 0x8, addend: 0x0, symName: __ZNKSt3__117__compressed_pairIPNS_10shared_ptrI8hittableEERNS_9allocatorIS3_EEE5firstB7v160006Ev, symObjAddr: 0x3594, symBinAddr: 0x10000567C, symSize: 0x24 }
  - { offsetInCU: 0x108CF, offset: 0x108CF, size: 0x8, addend: 0x0, symName: __ZN6cameraC2Ev, symObjAddr: 0x35B8, symBinAddr: 0x1000056A0, symSize: 0x70 }
  - { offsetInCU: 0x108FB, offset: 0x108FB, size: 0x8, addend: 0x0, symName: __ZN6camera10initializeEv, symObjAddr: 0x3628, symBinAddr: 0x100005710, symSize: 0x2E0 }
  - { offsetInCU: 0x10979, offset: 0x10979, size: 0x8, addend: 0x0, symName: __ZNSt3__113basic_ostreamIcNS_11char_traitsIcEEElsB7v160006EPFRS3_S4_E, symObjAddr: 0x3950, symBinAddr: 0x100005A38, symSize: 0x2C }
  - { offsetInCU: 0x109AD, offset: 0x109AD, size: 0x8, addend: 0x0, symName: __ZNK6camera7get_rayEii, symObjAddr: 0x39A4, symBinAddr: 0x100005A8C, symSize: 0x148 }
  - { offsetInCU: 0x10A29, offset: 0x10A29, size: 0x8, addend: 0x0, symName: __ZNK6camera9ray_colorERK3rayiRK8hittable, symObjAddr: 0x3AEC, symBinAddr: 0x100005BD4, symSize: 0x348 }
  - { offsetInCU: 0x10ACB, offset: 0x10ACB, size: 0x8, addend: 0x0, symName: __ZN4vec3pLERKS_, symObjAddr: 0x3E34, symBinAddr: 0x100005F1C, symSize: 0x54 }
  - { offsetInCU: 0x10AFE, offset: 0x10AFE, size: 0x8, addend: 0x0, symName: __ZmldRK4vec3, symObjAddr: 0x3E88, symBinAddr: 0x100005F70, symSize: 0x64 }
  - { offsetInCU: 0x10B38, offset: 0x10B38, size: 0x8, addend: 0x0, symName: __ZdvRK4vec3d, symObjAddr: 0x3EEC, symBinAddr: 0x100005FD4, symSize: 0x4C }
  - { offsetInCU: 0x10B72, offset: 0x10B72, size: 0x8, addend: 0x0, symName: __ZmiRK4vec3S1_, symObjAddr: 0x3F38, symBinAddr: 0x100006020, symSize: 0x70 }
  - { offsetInCU: 0x10BAC, offset: 0x10BAC, size: 0x8, addend: 0x0, symName: __ZplRK4vec3S1_, symObjAddr: 0x3FA8, symBinAddr: 0x100006090, symSize: 0x70 }
  - { offsetInCU: 0x10BE7, offset: 0x10BE7, size: 0x8, addend: 0x0, symName: __ZNSt3__111char_traitsIcE6lengthEPKc, symObjAddr: 0x4204, symBinAddr: 0x1000062EC, symSize: 0x34 }
  - { offsetInCU: 0x10C28, offset: 0x10C28, size: 0x8, addend: 0x0, symName: __ZNKSt3__113basic_ostreamIcNS_11char_traitsIcEEE6sentrycvbB7v160006Ev, symObjAddr: 0x4238, symBinAddr: 0x100006320, symSize: 0x1C }
  - { offsetInCU: 0x10C4E, offset: 0x10C4E, size: 0x8, addend: 0x0, symName: __ZNSt3__119ostreambuf_iteratorIcNS_11char_traitsIcEEEC1B7v160006ERNS_13basic_ostreamIcS2_EE, symObjAddr: 0x4494, symBinAddr: 0x10000657C, symSize: 0x34 }
  - { offsetInCU: 0x10C86, offset: 0x10C86, size: 0x8, addend: 0x0, symName: __ZNKSt3__18ios_base5flagsB7v160006Ev, symObjAddr: 0x44C8, symBinAddr: 0x1000065B0, symSize: 0x18 }
  - { offsetInCU: 0x10CAE, offset: 0x10CAE, size: 0x8, addend: 0x0, symName: __ZNKSt3__19basic_iosIcNS_11char_traitsIcEEE4fillB7v160006Ev, symObjAddr: 0x44E0, symBinAddr: 0x1000065C8, symSize: 0x64 }
  - { offsetInCU: 0x10CD6, offset: 0x10CD6, size: 0x8, addend: 0x0, symName: __ZNKSt3__119ostreambuf_iteratorIcNS_11char_traitsIcEEE6failedB7v160006Ev, symObjAddr: 0x4544, symBinAddr: 0x10000662C, symSize: 0x24 }
  - { offsetInCU: 0x10CFC, offset: 0x10CFC, size: 0x8, addend: 0x0, symName: __ZNSt3__19basic_iosIcNS_11char_traitsIcEEE8setstateB7v160006Ej, symObjAddr: 0x4568, symBinAddr: 0x100006650, symSize: 0x2C }
  - { offsetInCU: 0x10D31, offset: 0x10D31, size: 0x8, addend: 0x0, symName: __ZNKSt3__18ios_base5widthB7v160006Ev, symObjAddr: 0x4594, symBinAddr: 0x10000667C, symSize: 0x18 }
  - { offsetInCU: 0x10D59, offset: 0x10D59, size: 0x8, addend: 0x0, symName: __ZNSt3__115basic_streambufIcNS_11char_traitsIcEEE5sputnB7v160006EPKcl, symObjAddr: 0x45AC, symBinAddr: 0x100006694, symSize: 0x3C }
  - { offsetInCU: 0x10D9B, offset: 0x10D9B, size: 0x8, addend: 0x0, symName: __ZNSt3__112basic_stringIcNS_11char_traitsIcEENS_9allocatorIcEEEC1B7v160006Emc, symObjAddr: 0x45E8, symBinAddr: 0x1000066D0, symSize: 0x3C }
  - { offsetInCU: 0x10DE3, offset: 0x10DE3, size: 0x8, addend: 0x0, symName: __ZNSt3__112basic_stringIcNS_11char_traitsIcEENS_9allocatorIcEEE4dataB7v160006Ev, symObjAddr: 0x4624, symBinAddr: 0x10000670C, symSize: 0x28 }
  - { offsetInCU: 0x10E09, offset: 0x10E09, size: 0x8, addend: 0x0, symName: __ZNSt3__18ios_base5widthB7v160006El, symObjAddr: 0x464C, symBinAddr: 0x100006734, symSize: 0x2C }
  - { offsetInCU: 0x10E4F, offset: 0x10E4F, size: 0x8, addend: 0x0, symName: __ZNSt3__112basic_stringIcNS_11char_traitsIcEENS_9allocatorIcEEEC2B7v160006Emc, symObjAddr: 0x4678, symBinAddr: 0x100006760, symSize: 0x54 }
  - { offsetInCU: 0x10E97, offset: 0x10E97, size: 0x8, addend: 0x0, symName: __ZNSt3__117__compressed_pairINS_12basic_stringIcNS_11char_traitsIcEENS_9allocatorIcEEE5__repES5_EC1B7v160006INS_18__default_init_tagESA_EEOT_OT0_, symObjAddr: 0x46CC, symBinAddr: 0x1000067B4, symSize: 0x3C }
  - { offsetInCU: 0x10EEF, offset: 0x10EEF, size: 0x8, addend: 0x0, symName: __ZNSt3__117__compressed_pairINS_12basic_stringIcNS_11char_traitsIcEENS_9allocatorIcEEE5__repES5_EC2B7v160006INS_18__default_init_tagESA_EEOT_OT0_, symObjAddr: 0x4718, symBinAddr: 0x100006800, symSize: 0x3C }
  - { offsetInCU: 0x10F47, offset: 0x10F47, size: 0x8, addend: 0x0, symName: __ZNSt3__122__compressed_pair_elemINS_12basic_stringIcNS_11char_traitsIcEENS_9allocatorIcEEE5__repELi0ELb0EEC2B7v160006ENS_18__default_init_tagE, symObjAddr: 0x4754, symBinAddr: 0x10000683C, symSize: 0x14 }
  - { offsetInCU: 0x10F7C, offset: 0x10F7C, size: 0x8, addend: 0x0, symName: __ZNSt3__122__compressed_pair_elemINS_9allocatorIcEELi1ELb1EEC2B7v160006ENS_18__default_init_tagE, symObjAddr: 0x4768, symBinAddr: 0x100006850, symSize: 0x2C }
  - { offsetInCU: 0x10FB1, offset: 0x10FB1, size: 0x8, addend: 0x0, symName: __ZNSt3__19allocatorIcEC2B7v160006Ev, symObjAddr: 0x4794, symBinAddr: 0x10000687C, symSize: 0x2C }
  - { offsetInCU: 0x10FDB, offset: 0x10FDB, size: 0x8, addend: 0x0, symName: __ZNSt3__116__non_trivial_ifILb1ENS_9allocatorIcEEEC2B7v160006Ev, symObjAddr: 0x47C0, symBinAddr: 0x1000068A8, symSize: 0x14 }
  - { offsetInCU: 0x11005, offset: 0x11005, size: 0x8, addend: 0x0, symName: __ZNSt3__112basic_stringIcNS_11char_traitsIcEENS_9allocatorIcEEE13__get_pointerB7v160006Ev, symObjAddr: 0x47E8, symBinAddr: 0x1000068D0, symSize: 0x54 }
  - { offsetInCU: 0x1102B, offset: 0x1102B, size: 0x8, addend: 0x0, symName: __ZNKSt3__112basic_stringIcNS_11char_traitsIcEENS_9allocatorIcEEE9__is_longB7v160006Ev, symObjAddr: 0x483C, symBinAddr: 0x100006924, symSize: 0x38 }
  - { offsetInCU: 0x11051, offset: 0x11051, size: 0x8, addend: 0x0, symName: __ZNSt3__112basic_stringIcNS_11char_traitsIcEENS_9allocatorIcEEE18__get_long_pointerB7v160006Ev, symObjAddr: 0x4874, symBinAddr: 0x10000695C, symSize: 0x28 }
  - { offsetInCU: 0x11077, offset: 0x11077, size: 0x8, addend: 0x0, symName: __ZNSt3__112basic_stringIcNS_11char_traitsIcEENS_9allocatorIcEEE19__get_short_pointerB7v160006Ev, symObjAddr: 0x489C, symBinAddr: 0x100006984, symSize: 0x28 }
  - { offsetInCU: 0x1109D, offset: 0x1109D, size: 0x8, addend: 0x0, symName: __ZNKSt3__117__compressed_pairINS_12basic_stringIcNS_11char_traitsIcEENS_9allocatorIcEEE5__repES5_E5firstB7v160006Ev, symObjAddr: 0x48C4, symBinAddr: 0x1000069AC, symSize: 0x24 }
  - { offsetInCU: 0x110C3, offset: 0x110C3, size: 0x8, addend: 0x0, symName: __ZNKSt3__122__compressed_pair_elemINS_12basic_stringIcNS_11char_traitsIcEENS_9allocatorIcEEE5__repELi0ELb0EE5__getB7v160006Ev, symObjAddr: 0x48E8, symBinAddr: 0x1000069D0, symSize: 0x14 }
  - { offsetInCU: 0x110E9, offset: 0x110E9, size: 0x8, addend: 0x0, symName: __ZNSt3__117__compressed_pairINS_12basic_stringIcNS_11char_traitsIcEENS_9allocatorIcEEE5__repES5_E5firstB7v160006Ev, symObjAddr: 0x48FC, symBinAddr: 0x1000069E4, symSize: 0x24 }
  - { offsetInCU: 0x1110F, offset: 0x1110F, size: 0x8, addend: 0x0, symName: __ZNSt3__122__compressed_pair_elemINS_12basic_stringIcNS_11char_traitsIcEENS_9allocatorIcEEE5__repELi0ELb0EE5__getB7v160006Ev, symObjAddr: 0x4920, symBinAddr: 0x100006A08, symSize: 0x14 }
  - { offsetInCU: 0x11135, offset: 0x11135, size: 0x8, addend: 0x0, symName: __ZNSt3__114pointer_traitsIPcE10pointer_toB7v160006ERc, symObjAddr: 0x4934, symBinAddr: 0x100006A1C, symSize: 0x14 }
  - { offsetInCU: 0x11158, offset: 0x11158, size: 0x8, addend: 0x0, symName: __ZNSt3__119ostreambuf_iteratorIcNS_11char_traitsIcEEEC2B7v160006ERNS_13basic_ostreamIcS2_EE, symObjAddr: 0x4948, symBinAddr: 0x100006A30, symSize: 0x54 }
  - { offsetInCU: 0x11190, offset: 0x11190, size: 0x8, addend: 0x0, symName: __ZNKSt3__19basic_iosIcNS_11char_traitsIcEEE5rdbufB7v160006Ev, symObjAddr: 0x499C, symBinAddr: 0x100006A84, symSize: 0x24 }
  - { offsetInCU: 0x111B8, offset: 0x111B8, size: 0x8, addend: 0x0, symName: __ZNKSt3__18ios_base5rdbufB7v160006Ev, symObjAddr: 0x49C0, symBinAddr: 0x100006AA8, symSize: 0x18 }
  - { offsetInCU: 0x111DE, offset: 0x111DE, size: 0x8, addend: 0x0, symName: __ZNSt3__111char_traitsIcE11eq_int_typeEii, symObjAddr: 0x49D8, symBinAddr: 0x100006AC0, symSize: 0x28 }
  - { offsetInCU: 0x1120F, offset: 0x1120F, size: 0x8, addend: 0x0, symName: __ZNSt3__111char_traitsIcE3eofEv, symObjAddr: 0x4A00, symBinAddr: 0x100006AE8, symSize: 0x8 }
  - { offsetInCU: 0x11223, offset: 0x11223, size: 0x8, addend: 0x0, symName: __ZNKSt3__19basic_iosIcNS_11char_traitsIcEEE5widenB7v160006Ec, symObjAddr: 0x4A08, symBinAddr: 0x100006AF0, symSize: 0x84 }
  - { offsetInCU: 0x11291, offset: 0x11291, size: 0x8, addend: 0x0, symName: __ZNKSt3__15ctypeIcE5widenB7v160006Ec, symObjAddr: 0x4AB8, symBinAddr: 0x100006BA0, symSize: 0x38 }
  - { offsetInCU: 0x112C6, offset: 0x112C6, size: 0x8, addend: 0x0, symName: __ZNSt3__18ios_base8setstateB7v160006Ej, symObjAddr: 0x4AF0, symBinAddr: 0x100006BD8, symSize: 0x34 }
  - { offsetInCU: 0x112FD, offset: 0x112FD, size: 0x8, addend: 0x0, symName: __ZNK6camera13sample_squareEv, symObjAddr: 0x4B48, symBinAddr: 0x100006C30, symSize: 0x5C }
  - { offsetInCU: 0x11323, offset: 0x11323, size: 0x8, addend: 0x0, symName: __ZN3rayC1ERK4vec3S2_, symObjAddr: 0x4BA4, symBinAddr: 0x100006C8C, symSize: 0x3C }
  - { offsetInCU: 0x11369, offset: 0x11369, size: 0x8, addend: 0x0, symName: __Z13random_doublev, symObjAddr: 0x4BE0, symBinAddr: 0x100006CC8, symSize: 0x24 }
  - { offsetInCU: 0x11387, offset: 0x11387, size: 0x8, addend: 0x0, symName: __ZN3rayC2ERK4vec3S2_, symObjAddr: 0x4C04, symBinAddr: 0x100006CEC, symSize: 0x44 }
  - { offsetInCU: 0x113CD, offset: 0x113CD, size: 0x8, addend: 0x0, symName: __ZN3rayC1Ev, symObjAddr: 0x4C48, symBinAddr: 0x100006D30, symSize: 0x2C }
  - { offsetInCU: 0x113F7, offset: 0x113F7, size: 0x8, addend: 0x0, symName: __ZNKSt3__110shared_ptrI8materialEptB7v160006Ev, symObjAddr: 0x4C74, symBinAddr: 0x100006D5C, symSize: 0x18 }
  - { offsetInCU: 0x1141C, offset: 0x1141C, size: 0x8, addend: 0x0, symName: __ZmlRK4vec3S1_, symObjAddr: 0x4C8C, symBinAddr: 0x100006D74, symSize: 0x70 }
  - { offsetInCU: 0x11456, offset: 0x11456, size: 0x8, addend: 0x0, symName: __Z11unit_vectorRK4vec3, symObjAddr: 0x4CFC, symBinAddr: 0x100006DE4, symSize: 0x4C }
  - { offsetInCU: 0x11483, offset: 0x11483, size: 0x8, addend: 0x0, symName: __ZNK3ray9directionEv, symObjAddr: 0x4D48, symBinAddr: 0x100006E30, symSize: 0x18 }
  - { offsetInCU: 0x114A9, offset: 0x114A9, size: 0x8, addend: 0x0, symName: __ZN3rayC2Ev, symObjAddr: 0x4D60, symBinAddr: 0x100006E48, symSize: 0x38 }
  - { offsetInCU: 0x114D3, offset: 0x114D3, size: 0x8, addend: 0x0, symName: __ZNK4vec36lengthEv, symObjAddr: 0x4D98, symBinAddr: 0x100006E80, symSize: 0x28 }
  - { offsetInCU: 0x114F9, offset: 0x114F9, size: 0x8, addend: 0x0, symName: __ZNK4vec314length_squaredEv, symObjAddr: 0x4DC0, symBinAddr: 0x100006EA8, symSize: 0x38 }
  - { offsetInCU: 0x1151F, offset: 0x1151F, size: 0x8, addend: 0x0, symName: __ZN13hittable_listD2Ev, symObjAddr: 0x4DF8, symBinAddr: 0x100006EE0, symSize: 0x48 }
  - { offsetInCU: 0x1154B, offset: 0x1154B, size: 0x8, addend: 0x0, symName: __ZNSt3__16vectorINS_10shared_ptrI8hittableEENS_9allocatorIS3_EEED1B7v160006Ev, symObjAddr: 0x4E40, symBinAddr: 0x100006F28, symSize: 0x2C }
  - { offsetInCU: 0x11575, offset: 0x11575, size: 0x8, addend: 0x0, symName: __ZN8hittableD2Ev, symObjAddr: 0x4E6C, symBinAddr: 0x100006F54, symSize: 0x14 }
  - { offsetInCU: 0x1159F, offset: 0x1159F, size: 0x8, addend: 0x0, symName: __ZNSt3__16vectorINS_10shared_ptrI8hittableEENS_9allocatorIS3_EEED2B7v160006Ev, symObjAddr: 0x4E80, symBinAddr: 0x100006F68, symSize: 0x44 }
  - { offsetInCU: 0x115C9, offset: 0x115C9, size: 0x8, addend: 0x0, symName: __ZNSt3__16vectorINS_10shared_ptrI8hittableEENS_9allocatorIS3_EEE16__destroy_vectorC1ERS6_, symObjAddr: 0x4EC4, symBinAddr: 0x100006FAC, symSize: 0x34 }
  - { offsetInCU: 0x11602, offset: 0x11602, size: 0x8, addend: 0x0, symName: __ZNSt3__16vectorINS_10shared_ptrI8hittableEENS_9allocatorIS3_EEE16__destroy_vectorclB7v160006Ev, symObjAddr: 0x4EF8, symBinAddr: 0x100006FE0, symSize: 0x9C }
  - { offsetInCU: 0x11628, offset: 0x11628, size: 0x8, addend: 0x0, symName: __ZNSt3__16vectorINS_10shared_ptrI8hittableEENS_9allocatorIS3_EEE16__destroy_vectorC2ERS6_, symObjAddr: 0x4F94, symBinAddr: 0x10000707C, symSize: 0x20 }
  - { offsetInCU: 0x11661, offset: 0x11661, size: 0x8, addend: 0x0, symName: __ZNSt3__16vectorINS_10shared_ptrI8hittableEENS_9allocatorIS3_EEE7__clearB7v160006Ev, symObjAddr: 0x4FC4, symBinAddr: 0x1000070AC, symSize: 0x28 }
  - { offsetInCU: 0x11687, offset: 0x11687, size: 0x8, addend: 0x0, symName: __ZNSt3__16vectorINS_10shared_ptrI8hittableEENS_9allocatorIS3_EEE22__base_destruct_at_endB7v160006EPS3_, symObjAddr: 0x4FEC, symBinAddr: 0x1000070D4, symSize: 0x8C }
  - { offsetInCU: 0x116CB, offset: 0x116CB, size: 0x8, addend: 0x0, symName: __ZNSt3__110shared_ptrI8hittableED2B7v160006Ev, symObjAddr: 0x5078, symBinAddr: 0x100007160, symSize: 0x54 }
  - { offsetInCU: 0x116F5, offset: 0x116F5, size: 0x8, addend: 0x0, symName: __ZNSt3__19allocatorI10lambertianEC1B7v160006Ev, symObjAddr: 0x5164, symBinAddr: 0x10000724C, symSize: 0x2C }
  - { offsetInCU: 0x1175B, offset: 0x1175B, size: 0x8, addend: 0x0, symName: __ZNSt3__118__allocation_guardINS_9allocatorINS_20__shared_ptr_emplaceI10lambertianNS1_IS3_EEEEEEEC1B7v160006IS4_EET_m, symObjAddr: 0x5190, symBinAddr: 0x100007278, symSize: 0x34 }
  - { offsetInCU: 0x117AA, offset: 0x117AA, size: 0x8, addend: 0x0, symName: __ZNKSt3__118__allocation_guardINS_9allocatorINS_20__shared_ptr_emplaceI10lambertianNS1_IS3_EEEEEEE5__getB7v160006Ev, symObjAddr: 0x51C4, symBinAddr: 0x1000072AC, symSize: 0x18 }
  - { offsetInCU: 0x117D6, offset: 0x117D6, size: 0x8, addend: 0x0, symName: __ZNSt3__120__shared_ptr_emplaceI10lambertianNS_9allocatorIS1_EEEC1B7v160006IJ4vec3EEES3_DpOT_, symObjAddr: 0x51DC, symBinAddr: 0x1000072C4, symSize: 0x34 }
  - { offsetInCU: 0x11829, offset: 0x11829, size: 0x8, addend: 0x0, symName: __ZNSt3__118__allocation_guardINS_9allocatorINS_20__shared_ptr_emplaceI10lambertianNS1_IS3_EEEEEEE13__release_ptrB7v160006Ev, symObjAddr: 0x5210, symBinAddr: 0x1000072F8, symSize: 0x24 }
  - { offsetInCU: 0x1185D, offset: 0x1185D, size: 0x8, addend: 0x0, symName: __ZNSt3__110shared_ptrI10lambertianE27__create_with_control_blockB7v160006IS1_NS_20__shared_ptr_emplaceIS1_NS_9allocatorIS1_EEEEEES2_PT_PT0_, symObjAddr: 0x5234, symBinAddr: 0x10000731C, symSize: 0xA4 }
  - { offsetInCU: 0x118B2, offset: 0x118B2, size: 0x8, addend: 0x0, symName: __ZNSt3__120__shared_ptr_emplaceI10lambertianNS_9allocatorIS1_EEE10__get_elemB7v160006Ev, symObjAddr: 0x52D8, symBinAddr: 0x1000073C0, symSize: 0x28 }
  - { offsetInCU: 0x118D8, offset: 0x118D8, size: 0x8, addend: 0x0, symName: __ZNSt3__118__allocation_guardINS_9allocatorINS_20__shared_ptr_emplaceI10lambertianNS1_IS3_EEEEEEED1B7v160006Ev, symObjAddr: 0x5300, symBinAddr: 0x1000073E8, symSize: 0x2C }
  - { offsetInCU: 0x11902, offset: 0x11902, size: 0x8, addend: 0x0, symName: __ZNSt3__118__allocation_guardINS_9allocatorINS_20__shared_ptr_emplaceI10lambertianNS1_IS3_EEEEEEEC2B7v160006IS4_EET_m, symObjAddr: 0x532C, symBinAddr: 0x100007414, symSize: 0x50 }
  - { offsetInCU: 0x11951, offset: 0x11951, size: 0x8, addend: 0x0, symName: __ZNSt3__19allocatorINS_20__shared_ptr_emplaceI10lambertianNS0_IS2_EEEEEC1B7v160006IS2_EERKNS0_IT_EE, symObjAddr: 0x537C, symBinAddr: 0x100007464, symSize: 0x34 }
  - { offsetInCU: 0x1198F, offset: 0x1198F, size: 0x8, addend: 0x0, symName: __ZNSt3__116allocator_traitsINS_9allocatorINS_20__shared_ptr_emplaceI10lambertianNS1_IS3_EEEEEEE8allocateB7v160006ERS6_m, symObjAddr: 0x53B0, symBinAddr: 0x100007498, symSize: 0x2C }
  - { offsetInCU: 0x119C2, offset: 0x119C2, size: 0x8, addend: 0x0, symName: __ZNSt3__19allocatorINS_20__shared_ptr_emplaceI10lambertianNS0_IS2_EEEEEC2B7v160006IS2_EERKNS0_IT_EE, symObjAddr: 0x53DC, symBinAddr: 0x1000074C4, symSize: 0x30 }
  - { offsetInCU: 0x11A00, offset: 0x11A00, size: 0x8, addend: 0x0, symName: __ZNSt3__116__non_trivial_ifILb1ENS_9allocatorINS_20__shared_ptr_emplaceI10lambertianNS1_IS3_EEEEEEEC2B7v160006Ev, symObjAddr: 0x540C, symBinAddr: 0x1000074F4, symSize: 0x14 }
  - { offsetInCU: 0x11A2A, offset: 0x11A2A, size: 0x8, addend: 0x0, symName: __ZNSt3__19allocatorINS_20__shared_ptr_emplaceI10lambertianNS0_IS2_EEEEE8allocateB7v160006Em, symObjAddr: 0x5420, symBinAddr: 0x100007508, symSize: 0x5C }
  - { offsetInCU: 0x11A68, offset: 0x11A68, size: 0x8, addend: 0x0, symName: __ZNSt3__116allocator_traitsINS_9allocatorINS_20__shared_ptr_emplaceI10lambertianNS1_IS3_EEEEEEE8max_sizeB7v160006IS6_vEEmRKS6_, symObjAddr: 0x547C, symBinAddr: 0x100007564, symSize: 0x24 }
  - { offsetInCU: 0x11A96, offset: 0x11A96, size: 0x8, addend: 0x0, symName: __ZNKSt3__19allocatorINS_20__shared_ptr_emplaceI10lambertianNS0_IS2_EEEEE8max_sizeB7v160006Ev, symObjAddr: 0x54A0, symBinAddr: 0x100007588, symSize: 0x20 }
  - { offsetInCU: 0x11ABC, offset: 0x11ABC, size: 0x8, addend: 0x0, symName: __ZNSt3__120__shared_ptr_emplaceI10lambertianNS_9allocatorIS1_EEEC2B7v160006IJ4vec3EEES3_DpOT_, symObjAddr: 0x54C0, symBinAddr: 0x1000075A8, symSize: 0xB8 }
  - { offsetInCU: 0x11B0F, offset: 0x11B0F, size: 0x8, addend: 0x0, symName: __ZNSt3__119__shared_weak_countC2B7v160006El, symObjAddr: 0x5578, symBinAddr: 0x100007660, symSize: 0x54 }
  - { offsetInCU: 0x11B47, offset: 0x11B47, size: 0x8, addend: 0x0, symName: __ZNSt3__120__shared_ptr_emplaceI10lambertianNS_9allocatorIS1_EEE8_StorageC1B7v160006EOS3_, symObjAddr: 0x55CC, symBinAddr: 0x1000076B4, symSize: 0x34 }
  - { offsetInCU: 0x11B80, offset: 0x11B80, size: 0x8, addend: 0x0, symName: __ZN10lambertianC1ERK4vec3, symObjAddr: 0x5600, symBinAddr: 0x1000076E8, symSize: 0x34 }
  - { offsetInCU: 0x11BB8, offset: 0x11BB8, size: 0x8, addend: 0x0, symName: __ZNSt3__120__shared_ptr_emplaceI10lambertianNS_9allocatorIS1_EEE8_StorageD1B7v160006Ev, symObjAddr: 0x5634, symBinAddr: 0x10000771C, symSize: 0x2C }
  - { offsetInCU: 0x11BE2, offset: 0x11BE2, size: 0x8, addend: 0x0, symName: __ZNSt3__120__shared_ptr_emplaceI10lambertianNS_9allocatorIS1_EEED1Ev, symObjAddr: 0x5660, symBinAddr: 0x100007748, symSize: 0x2C }
  - { offsetInCU: 0x11C0F, offset: 0x11C0F, size: 0x8, addend: 0x0, symName: __ZNSt3__120__shared_ptr_emplaceI10lambertianNS_9allocatorIS1_EEED0Ev, symObjAddr: 0x568C, symBinAddr: 0x100007774, symSize: 0x30 }
  - { offsetInCU: 0x11C3C, offset: 0x11C3C, size: 0x8, addend: 0x0, symName: __ZNSt3__120__shared_ptr_emplaceI10lambertianNS_9allocatorIS1_EEE16__on_zero_sharedEv, symObjAddr: 0x56BC, symBinAddr: 0x1000077A4, symSize: 0x30 }
  - { offsetInCU: 0x11C62, offset: 0x11C62, size: 0x8, addend: 0x0, symName: __ZNSt3__120__shared_ptr_emplaceI10lambertianNS_9allocatorIS1_EEE21__on_zero_shared_weakEv, symObjAddr: 0x56EC, symBinAddr: 0x1000077D4, symSize: 0x5C }
  - { offsetInCU: 0x11CA3, offset: 0x11CA3, size: 0x8, addend: 0x0, symName: __ZNSt3__114__shared_countC2B7v160006El, symObjAddr: 0x5748, symBinAddr: 0x100007830, symSize: 0x30 }
  - { offsetInCU: 0x11CDB, offset: 0x11CDB, size: 0x8, addend: 0x0, symName: __ZNSt3__120__shared_ptr_emplaceI10lambertianNS_9allocatorIS1_EEE8_StorageC2B7v160006EOS3_, symObjAddr: 0x5778, symBinAddr: 0x100007860, symSize: 0x30 }
  - { offsetInCU: 0x11D14, offset: 0x11D14, size: 0x8, addend: 0x0, symName: __ZNSt3__120__shared_ptr_emplaceI10lambertianNS_9allocatorIS1_EEE8_Storage11__get_allocEv, symObjAddr: 0x57A8, symBinAddr: 0x100007890, symSize: 0x3C }
  - { offsetInCU: 0x11D67, offset: 0x11D67, size: 0x8, addend: 0x0, symName: __ZNSt3__117__compressed_pairINS_9allocatorI10lambertianEES2_E16__get_first_baseB7v160006EPS4_, symObjAddr: 0x57E4, symBinAddr: 0x1000078CC, symSize: 0x14 }
  - { offsetInCU: 0x11D8A, offset: 0x11D8A, size: 0x8, addend: 0x0, symName: __ZN10lambertianC2ERK4vec3, symObjAddr: 0x57F8, symBinAddr: 0x1000078E0, symSize: 0x5C }
  - { offsetInCU: 0x11DC2, offset: 0x11DC2, size: 0x8, addend: 0x0, symName: __ZN8materialC2Ev, symObjAddr: 0x5854, symBinAddr: 0x10000793C, symSize: 0x24 }
  - { offsetInCU: 0x11DEE, offset: 0x11DEE, size: 0x8, addend: 0x0, symName: __ZN10lambertianD1Ev, symObjAddr: 0x5878, symBinAddr: 0x100007960, symSize: 0x2C }
  - { offsetInCU: 0x11E1A, offset: 0x11E1A, size: 0x8, addend: 0x0, symName: __ZN10lambertianD0Ev, symObjAddr: 0x58A4, symBinAddr: 0x10000798C, symSize: 0x30 }
  - { offsetInCU: 0x11E46, offset: 0x11E46, size: 0x8, addend: 0x0, symName: __ZNK10lambertian7scatterERK3rayRK10hit_recordR4vec3RS0_, symObjAddr: 0x58D4, symBinAddr: 0x1000079BC, symSize: 0xD4 }
  - { offsetInCU: 0x11EB2, offset: 0x11EB2, size: 0x8, addend: 0x0, symName: __ZN8materialD1Ev, symObjAddr: 0x59A8, symBinAddr: 0x100007A90, symSize: 0x2C }
  - { offsetInCU: 0x11EDC, offset: 0x11EDC, size: 0x8, addend: 0x0, symName: __ZN8materialD0Ev, symObjAddr: 0x59D4, symBinAddr: 0x100007ABC, symSize: 0x30 }
  - { offsetInCU: 0x11F06, offset: 0x11F06, size: 0x8, addend: 0x0, symName: __ZNK8material7scatterERK3rayRK10hit_recordR4vec3RS0_, symObjAddr: 0x5A04, symBinAddr: 0x100007AEC, symSize: 0x28 }
  - { offsetInCU: 0x11F64, offset: 0x11F64, size: 0x8, addend: 0x0, symName: __ZN8materialD2Ev, symObjAddr: 0x5A2C, symBinAddr: 0x100007B14, symSize: 0x14 }
  - { offsetInCU: 0x11F8E, offset: 0x11F8E, size: 0x8, addend: 0x0, symName: __ZN10lambertianD2Ev, symObjAddr: 0x5A40, symBinAddr: 0x100007B28, symSize: 0x2C }
  - { offsetInCU: 0x11FB9, offset: 0x11FB9, size: 0x8, addend: 0x0, symName: __Z18random_unit_vectorv, symObjAddr: 0x5A6C, symBinAddr: 0x100007B54, symSize: 0xA0 }
  - { offsetInCU: 0x12002, offset: 0x12002, size: 0x8, addend: 0x0, symName: __ZNK4vec39near_zeroEv, symObjAddr: 0x5B0C, symBinAddr: 0x100007BF4, symSize: 0x98 }
  - { offsetInCU: 0x12036, offset: 0x12036, size: 0x8, addend: 0x0, symName: __ZN4vec36randomEdd, symObjAddr: 0x5BA4, symBinAddr: 0x100007C8C, symSize: 0x6C }
  - { offsetInCU: 0x12066, offset: 0x12066, size: 0x8, addend: 0x0, symName: __Z13random_doubledd, symObjAddr: 0x5C10, symBinAddr: 0x100007CF8, symSize: 0x4C }
  - { offsetInCU: 0x120A1, offset: 0x120A1, size: 0x8, addend: 0x0, symName: __ZNSt3__120__shared_ptr_emplaceI10lambertianNS_9allocatorIS1_EEE8_StorageD2B7v160006Ev, symObjAddr: 0x5C5C, symBinAddr: 0x100007D44, symSize: 0x2C }
  - { offsetInCU: 0x120CB, offset: 0x120CB, size: 0x8, addend: 0x0, symName: __ZNSt3__120__shared_ptr_emplaceI10lambertianNS_9allocatorIS1_EEED2Ev, symObjAddr: 0x5C88, symBinAddr: 0x100007D70, symSize: 0x48 }
  - { offsetInCU: 0x120F8, offset: 0x120F8, size: 0x8, addend: 0x0, symName: __ZNSt3__120__shared_ptr_emplaceI10lambertianNS_9allocatorIS1_EEE11__get_allocB7v160006Ev, symObjAddr: 0x5CD0, symBinAddr: 0x100007DB8, symSize: 0x28 }
  - { offsetInCU: 0x1211E, offset: 0x1211E, size: 0x8, addend: 0x0, symName: __ZNSt3__116allocator_traitsINS_9allocatorINS_20__shared_ptr_emplaceI10lambertianNS1_IS3_EEEEEEE10deallocateB7v160006ERS6_PS5_m, symObjAddr: 0x5CF8, symBinAddr: 0x100007DE0, symSize: 0x34 }
  - { offsetInCU: 0x12160, offset: 0x12160, size: 0x8, addend: 0x0, symName: __ZNSt3__114pointer_traitsIPNS_20__shared_ptr_emplaceI10lambertianNS_9allocatorIS2_EEEEE10pointer_toB7v160006ERS5_, symObjAddr: 0x5D2C, symBinAddr: 0x100007E14, symSize: 0x14 }
  - { offsetInCU: 0x12183, offset: 0x12183, size: 0x8, addend: 0x0, symName: __ZNSt3__19allocatorINS_20__shared_ptr_emplaceI10lambertianNS0_IS2_EEEEE10deallocateB7v160006EPS4_m, symObjAddr: 0x5D40, symBinAddr: 0x100007E28, symSize: 0x44 }
  - { offsetInCU: 0x121C5, offset: 0x121C5, size: 0x8, addend: 0x0, symName: __ZNSt3__110shared_ptrI10lambertianEC1B7v160006Ev, symObjAddr: 0x5D84, symBinAddr: 0x100007E6C, symSize: 0x2C }
  - { offsetInCU: 0x121EF, offset: 0x121EF, size: 0x8, addend: 0x0, symName: __ZNSt3__110shared_ptrI10lambertianE18__enable_weak_thisB7v160006Ez, symObjAddr: 0x5DB0, symBinAddr: 0x100007E98, symSize: 0x10 }
  - { offsetInCU: 0x12216, offset: 0x12216, size: 0x8, addend: 0x0, symName: __ZNSt3__110shared_ptrI10lambertianEC2B7v160006Ev, symObjAddr: 0x5DC0, symBinAddr: 0x100007EA8, symSize: 0x1C }
  - { offsetInCU: 0x12240, offset: 0x12240, size: 0x8, addend: 0x0, symName: __ZNSt3__120__shared_ptr_emplaceI10lambertianNS_9allocatorIS1_EEE8_Storage10__get_elemEv, symObjAddr: 0x5DDC, symBinAddr: 0x100007EC4, symSize: 0x3C }
  - { offsetInCU: 0x12293, offset: 0x12293, size: 0x8, addend: 0x0, symName: __ZNSt3__117__compressed_pairINS_9allocatorI10lambertianEES2_E17__get_second_baseB7v160006EPS4_, symObjAddr: 0x5E18, symBinAddr: 0x100007F00, symSize: 0x14 }
  - { offsetInCU: 0x122B6, offset: 0x122B6, size: 0x8, addend: 0x0, symName: __ZNSt3__118__allocation_guardINS_9allocatorINS_20__shared_ptr_emplaceI10lambertianNS1_IS3_EEEEEEED2B7v160006Ev, symObjAddr: 0x5E2C, symBinAddr: 0x100007F14, symSize: 0x58 }
  - { offsetInCU: 0x122E0, offset: 0x122E0, size: 0x8, addend: 0x0, symName: __ZNSt3__19allocatorI10lambertianEC2B7v160006Ev, symObjAddr: 0x5E84, symBinAddr: 0x100007F6C, symSize: 0x2C }
  - { offsetInCU: 0x1230A, offset: 0x1230A, size: 0x8, addend: 0x0, symName: __ZNSt3__116__non_trivial_ifILb1ENS_9allocatorI10lambertianEEEC2B7v160006Ev, symObjAddr: 0x5EB0, symBinAddr: 0x100007F98, symSize: 0x14 }
  - { offsetInCU: 0x12334, offset: 0x12334, size: 0x8, addend: 0x0, symName: __ZNSt3__110shared_ptrI10lambertianED2B7v160006Ev, symObjAddr: 0x5EC4, symBinAddr: 0x100007FAC, symSize: 0x54 }
  - { offsetInCU: 0x1235E, offset: 0x1235E, size: 0x8, addend: 0x0, symName: __ZNSt3__19allocatorI10dielectricEC1B7v160006Ev, symObjAddr: 0x5FB0, symBinAddr: 0x100008098, symSize: 0x2C }
  - { offsetInCU: 0x123C4, offset: 0x123C4, size: 0x8, addend: 0x0, symName: __ZNSt3__118__allocation_guardINS_9allocatorINS_20__shared_ptr_emplaceI10dielectricNS1_IS3_EEEEEEEC1B7v160006IS4_EET_m, symObjAddr: 0x5FDC, symBinAddr: 0x1000080C4, symSize: 0x34 }
  - { offsetInCU: 0x12413, offset: 0x12413, size: 0x8, addend: 0x0, symName: __ZNKSt3__118__allocation_guardINS_9allocatorINS_20__shared_ptr_emplaceI10dielectricNS1_IS3_EEEEEEE5__getB7v160006Ev, symObjAddr: 0x6010, symBinAddr: 0x1000080F8, symSize: 0x18 }
  - { offsetInCU: 0x1243F, offset: 0x1243F, size: 0x8, addend: 0x0, symName: __ZNSt3__120__shared_ptr_emplaceI10dielectricNS_9allocatorIS1_EEEC1B7v160006IJdEEES3_DpOT_, symObjAddr: 0x6028, symBinAddr: 0x100008110, symSize: 0x34 }
  - { offsetInCU: 0x12492, offset: 0x12492, size: 0x8, addend: 0x0, symName: __ZNSt3__118__allocation_guardINS_9allocatorINS_20__shared_ptr_emplaceI10dielectricNS1_IS3_EEEEEEE13__release_ptrB7v160006Ev, symObjAddr: 0x605C, symBinAddr: 0x100008144, symSize: 0x24 }
  - { offsetInCU: 0x124C6, offset: 0x124C6, size: 0x8, addend: 0x0, symName: __ZNSt3__110shared_ptrI10dielectricE27__create_with_control_blockB7v160006IS1_NS_20__shared_ptr_emplaceIS1_NS_9allocatorIS1_EEEEEES2_PT_PT0_, symObjAddr: 0x6080, symBinAddr: 0x100008168, symSize: 0xA4 }
  - { offsetInCU: 0x1251B, offset: 0x1251B, size: 0x8, addend: 0x0, symName: __ZNSt3__120__shared_ptr_emplaceI10dielectricNS_9allocatorIS1_EEE10__get_elemB7v160006Ev, symObjAddr: 0x6124, symBinAddr: 0x10000820C, symSize: 0x28 }
  - { offsetInCU: 0x12541, offset: 0x12541, size: 0x8, addend: 0x0, symName: __ZNSt3__118__allocation_guardINS_9allocatorINS_20__shared_ptr_emplaceI10dielectricNS1_IS3_EEEEEEED1B7v160006Ev, symObjAddr: 0x614C, symBinAddr: 0x100008234, symSize: 0x2C }
  - { offsetInCU: 0x1256B, offset: 0x1256B, size: 0x8, addend: 0x0, symName: __ZNSt3__118__allocation_guardINS_9allocatorINS_20__shared_ptr_emplaceI10dielectricNS1_IS3_EEEEEEEC2B7v160006IS4_EET_m, symObjAddr: 0x6178, symBinAddr: 0x100008260, symSize: 0x50 }
  - { offsetInCU: 0x125BA, offset: 0x125BA, size: 0x8, addend: 0x0, symName: __ZNSt3__19allocatorINS_20__shared_ptr_emplaceI10dielectricNS0_IS2_EEEEEC1B7v160006IS2_EERKNS0_IT_EE, symObjAddr: 0x61C8, symBinAddr: 0x1000082B0, symSize: 0x34 }
  - { offsetInCU: 0x125F8, offset: 0x125F8, size: 0x8, addend: 0x0, symName: __ZNSt3__116allocator_traitsINS_9allocatorINS_20__shared_ptr_emplaceI10dielectricNS1_IS3_EEEEEEE8allocateB7v160006ERS6_m, symObjAddr: 0x61FC, symBinAddr: 0x1000082E4, symSize: 0x2C }
  - { offsetInCU: 0x1262B, offset: 0x1262B, size: 0x8, addend: 0x0, symName: __ZNSt3__19allocatorINS_20__shared_ptr_emplaceI10dielectricNS0_IS2_EEEEEC2B7v160006IS2_EERKNS0_IT_EE, symObjAddr: 0x6228, symBinAddr: 0x100008310, symSize: 0x30 }
  - { offsetInCU: 0x12669, offset: 0x12669, size: 0x8, addend: 0x0, symName: __ZNSt3__116__non_trivial_ifILb1ENS_9allocatorINS_20__shared_ptr_emplaceI10dielectricNS1_IS3_EEEEEEEC2B7v160006Ev, symObjAddr: 0x6258, symBinAddr: 0x100008340, symSize: 0x14 }
  - { offsetInCU: 0x12693, offset: 0x12693, size: 0x8, addend: 0x0, symName: __ZNSt3__19allocatorINS_20__shared_ptr_emplaceI10dielectricNS0_IS2_EEEEE8allocateB7v160006Em, symObjAddr: 0x626C, symBinAddr: 0x100008354, symSize: 0x5C }
  - { offsetInCU: 0x126D1, offset: 0x126D1, size: 0x8, addend: 0x0, symName: __ZNSt3__116allocator_traitsINS_9allocatorINS_20__shared_ptr_emplaceI10dielectricNS1_IS3_EEEEEEE8max_sizeB7v160006IS6_vEEmRKS6_, symObjAddr: 0x62C8, symBinAddr: 0x1000083B0, symSize: 0x24 }
  - { offsetInCU: 0x126FF, offset: 0x126FF, size: 0x8, addend: 0x0, symName: __ZNKSt3__19allocatorINS_20__shared_ptr_emplaceI10dielectricNS0_IS2_EEEEE8max_sizeB7v160006Ev, symObjAddr: 0x62EC, symBinAddr: 0x1000083D4, symSize: 0x18 }
  - { offsetInCU: 0x12725, offset: 0x12725, size: 0x8, addend: 0x0, symName: __ZNSt3__120__shared_ptr_emplaceI10dielectricNS_9allocatorIS1_EEEC2B7v160006IJdEEES3_DpOT_, symObjAddr: 0x6304, symBinAddr: 0x1000083EC, symSize: 0xBC }
  - { offsetInCU: 0x12778, offset: 0x12778, size: 0x8, addend: 0x0, symName: __ZNSt3__120__shared_ptr_emplaceI10dielectricNS_9allocatorIS1_EEE8_StorageC1B7v160006EOS3_, symObjAddr: 0x63C0, symBinAddr: 0x1000084A8, symSize: 0x34 }
  - { offsetInCU: 0x127B1, offset: 0x127B1, size: 0x8, addend: 0x0, symName: __ZN10dielectricC1Ed, symObjAddr: 0x63F4, symBinAddr: 0x1000084DC, symSize: 0x34 }
  - { offsetInCU: 0x127E9, offset: 0x127E9, size: 0x8, addend: 0x0, symName: __ZNSt3__120__shared_ptr_emplaceI10dielectricNS_9allocatorIS1_EEE8_StorageD1B7v160006Ev, symObjAddr: 0x6428, symBinAddr: 0x100008510, symSize: 0x2C }
  - { offsetInCU: 0x12813, offset: 0x12813, size: 0x8, addend: 0x0, symName: __ZNSt3__120__shared_ptr_emplaceI10dielectricNS_9allocatorIS1_EEED1Ev, symObjAddr: 0x6454, symBinAddr: 0x10000853C, symSize: 0x2C }
  - { offsetInCU: 0x12840, offset: 0x12840, size: 0x8, addend: 0x0, symName: __ZNSt3__120__shared_ptr_emplaceI10dielectricNS_9allocatorIS1_EEED0Ev, symObjAddr: 0x6480, symBinAddr: 0x100008568, symSize: 0x30 }
  - { offsetInCU: 0x1286D, offset: 0x1286D, size: 0x8, addend: 0x0, symName: __ZNSt3__120__shared_ptr_emplaceI10dielectricNS_9allocatorIS1_EEE16__on_zero_sharedEv, symObjAddr: 0x64B0, symBinAddr: 0x100008598, symSize: 0x30 }
  - { offsetInCU: 0x12893, offset: 0x12893, size: 0x8, addend: 0x0, symName: __ZNSt3__120__shared_ptr_emplaceI10dielectricNS_9allocatorIS1_EEE21__on_zero_shared_weakEv, symObjAddr: 0x64E0, symBinAddr: 0x1000085C8, symSize: 0x5C }
  - { offsetInCU: 0x128D4, offset: 0x128D4, size: 0x8, addend: 0x0, symName: __ZNSt3__120__shared_ptr_emplaceI10dielectricNS_9allocatorIS1_EEE8_StorageC2B7v160006EOS3_, symObjAddr: 0x653C, symBinAddr: 0x100008624, symSize: 0x30 }
  - { offsetInCU: 0x1290D, offset: 0x1290D, size: 0x8, addend: 0x0, symName: __ZNSt3__120__shared_ptr_emplaceI10dielectricNS_9allocatorIS1_EEE8_Storage11__get_allocEv, symObjAddr: 0x656C, symBinAddr: 0x100008654, symSize: 0x3C }
  - { offsetInCU: 0x12960, offset: 0x12960, size: 0x8, addend: 0x0, symName: __ZNSt3__117__compressed_pairINS_9allocatorI10dielectricEES2_E16__get_first_baseB7v160006EPS4_, symObjAddr: 0x65A8, symBinAddr: 0x100008690, symSize: 0x14 }
  - { offsetInCU: 0x12983, offset: 0x12983, size: 0x8, addend: 0x0, symName: __ZN10dielectricC2Ed, symObjAddr: 0x65BC, symBinAddr: 0x1000086A4, symSize: 0x50 }
  - { offsetInCU: 0x129BB, offset: 0x129BB, size: 0x8, addend: 0x0, symName: __ZN10dielectricD1Ev, symObjAddr: 0x660C, symBinAddr: 0x1000086F4, symSize: 0x2C }
  - { offsetInCU: 0x129E7, offset: 0x129E7, size: 0x8, addend: 0x0, symName: __ZN10dielectricD0Ev, symObjAddr: 0x6638, symBinAddr: 0x100008720, symSize: 0x30 }
  - { offsetInCU: 0x12A13, offset: 0x12A13, size: 0x8, addend: 0x0, symName: __ZNK10dielectric7scatterERK3rayRK10hit_recordR4vec3RS0_, symObjAddr: 0x6668, symBinAddr: 0x100008750, symSize: 0x1F0 }
  - { offsetInCU: 0x12ACB, offset: 0x12ACB, size: 0x8, addend: 0x0, symName: __ZN10dielectricD2Ev, symObjAddr: 0x6858, symBinAddr: 0x100008940, symSize: 0x2C }
  - { offsetInCU: 0x12AF6, offset: 0x12AF6, size: 0x8, addend: 0x0, symName: __Z3dotRK4vec3S1_, symObjAddr: 0x6884, symBinAddr: 0x10000896C, symSize: 0x50 }
  - { offsetInCU: 0x12B31, offset: 0x12B31, size: 0x8, addend: 0x0, symName: __ZNK4vec3ngEv, symObjAddr: 0x68D4, symBinAddr: 0x1000089BC, symSize: 0x4C }
  - { offsetInCU: 0x12B57, offset: 0x12B57, size: 0x8, addend: 0x0, symName: __ZN10dielectric11reflectanceEdd, symObjAddr: 0x6920, symBinAddr: 0x100008A08, symSize: 0x80 }
  - { offsetInCU: 0x12B95, offset: 0x12B95, size: 0x8, addend: 0x0, symName: __Z7reflectRK4vec3S1_, symObjAddr: 0x69A0, symBinAddr: 0x100008A88, symSize: 0x78 }
  - { offsetInCU: 0x12BCF, offset: 0x12BCF, size: 0x8, addend: 0x0, symName: __Z7refractRK4vec3S1_d, symObjAddr: 0x6A18, symBinAddr: 0x100008B00, symSize: 0x108 }
  - { offsetInCU: 0x12C43, offset: 0x12C43, size: 0x8, addend: 0x0, symName: __ZNSt3__120__shared_ptr_emplaceI10dielectricNS_9allocatorIS1_EEE8_StorageD2B7v160006Ev, symObjAddr: 0x6B58, symBinAddr: 0x100008C40, symSize: 0x2C }
  - { offsetInCU: 0x12C6D, offset: 0x12C6D, size: 0x8, addend: 0x0, symName: __ZNSt3__120__shared_ptr_emplaceI10dielectricNS_9allocatorIS1_EEED2Ev, symObjAddr: 0x6B84, symBinAddr: 0x100008C6C, symSize: 0x48 }
  - { offsetInCU: 0x12C9A, offset: 0x12C9A, size: 0x8, addend: 0x0, symName: __ZNSt3__120__shared_ptr_emplaceI10dielectricNS_9allocatorIS1_EEE11__get_allocB7v160006Ev, symObjAddr: 0x6BCC, symBinAddr: 0x100008CB4, symSize: 0x28 }
  - { offsetInCU: 0x12CC0, offset: 0x12CC0, size: 0x8, addend: 0x0, symName: __ZNSt3__116allocator_traitsINS_9allocatorINS_20__shared_ptr_emplaceI10dielectricNS1_IS3_EEEEEEE10deallocateB7v160006ERS6_PS5_m, symObjAddr: 0x6BF4, symBinAddr: 0x100008CDC, symSize: 0x34 }
  - { offsetInCU: 0x12D02, offset: 0x12D02, size: 0x8, addend: 0x0, symName: __ZNSt3__114pointer_traitsIPNS_20__shared_ptr_emplaceI10dielectricNS_9allocatorIS2_EEEEE10pointer_toB7v160006ERS5_, symObjAddr: 0x6C28, symBinAddr: 0x100008D10, symSize: 0x14 }
  - { offsetInCU: 0x12D25, offset: 0x12D25, size: 0x8, addend: 0x0, symName: __ZNSt3__19allocatorINS_20__shared_ptr_emplaceI10dielectricNS0_IS2_EEEEE10deallocateB7v160006EPS4_m, symObjAddr: 0x6C3C, symBinAddr: 0x100008D24, symSize: 0x44 }
  - { offsetInCU: 0x12D67, offset: 0x12D67, size: 0x8, addend: 0x0, symName: __ZNSt3__110shared_ptrI10dielectricEC1B7v160006Ev, symObjAddr: 0x6C80, symBinAddr: 0x100008D68, symSize: 0x2C }
  - { offsetInCU: 0x12D91, offset: 0x12D91, size: 0x8, addend: 0x0, symName: __ZNSt3__110shared_ptrI10dielectricE18__enable_weak_thisB7v160006Ez, symObjAddr: 0x6CAC, symBinAddr: 0x100008D94, symSize: 0x10 }
  - { offsetInCU: 0x12DB8, offset: 0x12DB8, size: 0x8, addend: 0x0, symName: __ZNSt3__110shared_ptrI10dielectricEC2B7v160006Ev, symObjAddr: 0x6CBC, symBinAddr: 0x100008DA4, symSize: 0x1C }
  - { offsetInCU: 0x12DE2, offset: 0x12DE2, size: 0x8, addend: 0x0, symName: __ZNSt3__120__shared_ptr_emplaceI10dielectricNS_9allocatorIS1_EEE8_Storage10__get_elemEv, symObjAddr: 0x6CD8, symBinAddr: 0x100008DC0, symSize: 0x3C }
  - { offsetInCU: 0x12E35, offset: 0x12E35, size: 0x8, addend: 0x0, symName: __ZNSt3__117__compressed_pairINS_9allocatorI10dielectricEES2_E17__get_second_baseB7v160006EPS4_, symObjAddr: 0x6D14, symBinAddr: 0x100008DFC, symSize: 0x14 }
  - { offsetInCU: 0x12E58, offset: 0x12E58, size: 0x8, addend: 0x0, symName: __ZNSt3__118__allocation_guardINS_9allocatorINS_20__shared_ptr_emplaceI10dielectricNS1_IS3_EEEEEEED2B7v160006Ev, symObjAddr: 0x6D28, symBinAddr: 0x100008E10, symSize: 0x58 }
  - { offsetInCU: 0x12E82, offset: 0x12E82, size: 0x8, addend: 0x0, symName: __ZNSt3__19allocatorI10dielectricEC2B7v160006Ev, symObjAddr: 0x6D80, symBinAddr: 0x100008E68, symSize: 0x2C }
  - { offsetInCU: 0x12EAC, offset: 0x12EAC, size: 0x8, addend: 0x0, symName: __ZNSt3__116__non_trivial_ifILb1ENS_9allocatorI10dielectricEEEC2B7v160006Ev, symObjAddr: 0x6DAC, symBinAddr: 0x100008E94, symSize: 0x14 }
  - { offsetInCU: 0x12ED6, offset: 0x12ED6, size: 0x8, addend: 0x0, symName: __ZNSt3__110shared_ptrI10dielectricED2B7v160006Ev, symObjAddr: 0x6DC0, symBinAddr: 0x100008EA8, symSize: 0x54 }
  - { offsetInCU: 0x12F00, offset: 0x12F00, size: 0x8, addend: 0x0, symName: __ZNSt3__19allocatorI5metalEC1B7v160006Ev, symObjAddr: 0x6EB4, symBinAddr: 0x100008F9C, symSize: 0x2C }
  - { offsetInCU: 0x12F66, offset: 0x12F66, size: 0x8, addend: 0x0, symName: __ZNSt3__118__allocation_guardINS_9allocatorINS_20__shared_ptr_emplaceI5metalNS1_IS3_EEEEEEEC1B7v160006IS4_EET_m, symObjAddr: 0x6EE0, symBinAddr: 0x100008FC8, symSize: 0x34 }
  - { offsetInCU: 0x12FB5, offset: 0x12FB5, size: 0x8, addend: 0x0, symName: __ZNKSt3__118__allocation_guardINS_9allocatorINS_20__shared_ptr_emplaceI5metalNS1_IS3_EEEEEEE5__getB7v160006Ev, symObjAddr: 0x6F14, symBinAddr: 0x100008FFC, symSize: 0x18 }
  - { offsetInCU: 0x12FDB, offset: 0x12FDB, size: 0x8, addend: 0x0, symName: __ZNSt3__120__shared_ptr_emplaceI5metalNS_9allocatorIS1_EEEC1B7v160006IJ4vec3dEEES3_DpOT_, symObjAddr: 0x6F2C, symBinAddr: 0x100009014, symSize: 0x3C }
  - { offsetInCU: 0x13042, offset: 0x13042, size: 0x8, addend: 0x0, symName: __ZNSt3__118__allocation_guardINS_9allocatorINS_20__shared_ptr_emplaceI5metalNS1_IS3_EEEEEEE13__release_ptrB7v160006Ev, symObjAddr: 0x6F68, symBinAddr: 0x100009050, symSize: 0x24 }
  - { offsetInCU: 0x13076, offset: 0x13076, size: 0x8, addend: 0x0, symName: __ZNSt3__110shared_ptrI5metalE27__create_with_control_blockB7v160006IS1_NS_20__shared_ptr_emplaceIS1_NS_9allocatorIS1_EEEEEES2_PT_PT0_, symObjAddr: 0x6F8C, symBinAddr: 0x100009074, symSize: 0xA4 }
  - { offsetInCU: 0x130CB, offset: 0x130CB, size: 0x8, addend: 0x0, symName: __ZNSt3__120__shared_ptr_emplaceI5metalNS_9allocatorIS1_EEE10__get_elemB7v160006Ev, symObjAddr: 0x7030, symBinAddr: 0x100009118, symSize: 0x28 }
  - { offsetInCU: 0x130F1, offset: 0x130F1, size: 0x8, addend: 0x0, symName: __ZNSt3__118__allocation_guardINS_9allocatorINS_20__shared_ptr_emplaceI5metalNS1_IS3_EEEEEEED1B7v160006Ev, symObjAddr: 0x7058, symBinAddr: 0x100009140, symSize: 0x2C }
  - { offsetInCU: 0x1311B, offset: 0x1311B, size: 0x8, addend: 0x0, symName: __ZNSt3__118__allocation_guardINS_9allocatorINS_20__shared_ptr_emplaceI5metalNS1_IS3_EEEEEEEC2B7v160006IS4_EET_m, symObjAddr: 0x7084, symBinAddr: 0x10000916C, symSize: 0x50 }
  - { offsetInCU: 0x1316A, offset: 0x1316A, size: 0x8, addend: 0x0, symName: __ZNSt3__19allocatorINS_20__shared_ptr_emplaceI5metalNS0_IS2_EEEEEC1B7v160006IS2_EERKNS0_IT_EE, symObjAddr: 0x70D4, symBinAddr: 0x1000091BC, symSize: 0x34 }
  - { offsetInCU: 0x131A8, offset: 0x131A8, size: 0x8, addend: 0x0, symName: __ZNSt3__116allocator_traitsINS_9allocatorINS_20__shared_ptr_emplaceI5metalNS1_IS3_EEEEEEE8allocateB7v160006ERS6_m, symObjAddr: 0x7108, symBinAddr: 0x1000091F0, symSize: 0x2C }
  - { offsetInCU: 0x131DB, offset: 0x131DB, size: 0x8, addend: 0x0, symName: __ZNSt3__19allocatorINS_20__shared_ptr_emplaceI5metalNS0_IS2_EEEEEC2B7v160006IS2_EERKNS0_IT_EE, symObjAddr: 0x7134, symBinAddr: 0x10000921C, symSize: 0x30 }
  - { offsetInCU: 0x13219, offset: 0x13219, size: 0x8, addend: 0x0, symName: __ZNSt3__116__non_trivial_ifILb1ENS_9allocatorINS_20__shared_ptr_emplaceI5metalNS1_IS3_EEEEEEEC2B7v160006Ev, symObjAddr: 0x7164, symBinAddr: 0x10000924C, symSize: 0x14 }
  - { offsetInCU: 0x13243, offset: 0x13243, size: 0x8, addend: 0x0, symName: __ZNSt3__19allocatorINS_20__shared_ptr_emplaceI5metalNS0_IS2_EEEEE8allocateB7v160006Em, symObjAddr: 0x7178, symBinAddr: 0x100009260, symSize: 0x58 }
  - { offsetInCU: 0x13281, offset: 0x13281, size: 0x8, addend: 0x0, symName: __ZNSt3__116allocator_traitsINS_9allocatorINS_20__shared_ptr_emplaceI5metalNS1_IS3_EEEEEEE8max_sizeB7v160006IS6_vEEmRKS6_, symObjAddr: 0x71D0, symBinAddr: 0x1000092B8, symSize: 0x24 }
  - { offsetInCU: 0x132AF, offset: 0x132AF, size: 0x8, addend: 0x0, symName: __ZNKSt3__19allocatorINS_20__shared_ptr_emplaceI5metalNS0_IS2_EEEEE8max_sizeB7v160006Ev, symObjAddr: 0x71F4, symBinAddr: 0x1000092DC, symSize: 0x14 }
  - { offsetInCU: 0x132D5, offset: 0x132D5, size: 0x8, addend: 0x0, symName: __ZNSt3__120__shared_ptr_emplaceI5metalNS_9allocatorIS1_EEEC2B7v160006IJ4vec3dEEES3_DpOT_, symObjAddr: 0x7208, symBinAddr: 0x1000092F0, symSize: 0xC4 }
  - { offsetInCU: 0x1333C, offset: 0x1333C, size: 0x8, addend: 0x0, symName: __ZNSt3__120__shared_ptr_emplaceI5metalNS_9allocatorIS1_EEE8_StorageC1B7v160006EOS3_, symObjAddr: 0x72CC, symBinAddr: 0x1000093B4, symSize: 0x34 }
  - { offsetInCU: 0x13375, offset: 0x13375, size: 0x8, addend: 0x0, symName: __ZN5metalC1ERK4vec3d, symObjAddr: 0x7300, symBinAddr: 0x1000093E8, symSize: 0x3C }
  - { offsetInCU: 0x133BB, offset: 0x133BB, size: 0x8, addend: 0x0, symName: __ZNSt3__120__shared_ptr_emplaceI5metalNS_9allocatorIS1_EEE8_StorageD1B7v160006Ev, symObjAddr: 0x733C, symBinAddr: 0x100009424, symSize: 0x2C }
  - { offsetInCU: 0x133E5, offset: 0x133E5, size: 0x8, addend: 0x0, symName: __ZNSt3__120__shared_ptr_emplaceI5metalNS_9allocatorIS1_EEED1Ev, symObjAddr: 0x7368, symBinAddr: 0x100009450, symSize: 0x2C }
  - { offsetInCU: 0x13412, offset: 0x13412, size: 0x8, addend: 0x0, symName: __ZNSt3__120__shared_ptr_emplaceI5metalNS_9allocatorIS1_EEED0Ev, symObjAddr: 0x7394, symBinAddr: 0x10000947C, symSize: 0x30 }
  - { offsetInCU: 0x1343F, offset: 0x1343F, size: 0x8, addend: 0x0, symName: __ZNSt3__120__shared_ptr_emplaceI5metalNS_9allocatorIS1_EEE16__on_zero_sharedEv, symObjAddr: 0x73C4, symBinAddr: 0x1000094AC, symSize: 0x30 }
  - { offsetInCU: 0x13465, offset: 0x13465, size: 0x8, addend: 0x0, symName: __ZNSt3__120__shared_ptr_emplaceI5metalNS_9allocatorIS1_EEE21__on_zero_shared_weakEv, symObjAddr: 0x73F4, symBinAddr: 0x1000094DC, symSize: 0x5C }
  - { offsetInCU: 0x134A6, offset: 0x134A6, size: 0x8, addend: 0x0, symName: __ZNSt3__120__shared_ptr_emplaceI5metalNS_9allocatorIS1_EEE8_StorageC2B7v160006EOS3_, symObjAddr: 0x7450, symBinAddr: 0x100009538, symSize: 0x30 }
  - { offsetInCU: 0x134DF, offset: 0x134DF, size: 0x8, addend: 0x0, symName: __ZNSt3__120__shared_ptr_emplaceI5metalNS_9allocatorIS1_EEE8_Storage11__get_allocEv, symObjAddr: 0x7480, symBinAddr: 0x100009568, symSize: 0x3C }
  - { offsetInCU: 0x13532, offset: 0x13532, size: 0x8, addend: 0x0, symName: __ZNSt3__117__compressed_pairINS_9allocatorI5metalEES2_E16__get_first_baseB7v160006EPS4_, symObjAddr: 0x74BC, symBinAddr: 0x1000095A4, symSize: 0x14 }
  - { offsetInCU: 0x13555, offset: 0x13555, size: 0x8, addend: 0x0, symName: __ZN5metalC2ERK4vec3d, symObjAddr: 0x74D0, symBinAddr: 0x1000095B8, symSize: 0xA8 }
  - { offsetInCU: 0x1359B, offset: 0x1359B, size: 0x8, addend: 0x0, symName: __ZN5metalD1Ev, symObjAddr: 0x7578, symBinAddr: 0x100009660, symSize: 0x2C }
  - { offsetInCU: 0x135C7, offset: 0x135C7, size: 0x8, addend: 0x0, symName: __ZN5metalD0Ev, symObjAddr: 0x75A4, symBinAddr: 0x10000968C, symSize: 0x30 }
  - { offsetInCU: 0x135F3, offset: 0x135F3, size: 0x8, addend: 0x0, symName: __ZNK5metal7scatterERK3rayRK10hit_recordR4vec3RS0_, symObjAddr: 0x75D4, symBinAddr: 0x1000096BC, symSize: 0x138 }
  - { offsetInCU: 0x13660, offset: 0x13660, size: 0x8, addend: 0x0, symName: __ZN5metalD2Ev, symObjAddr: 0x770C, symBinAddr: 0x1000097F4, symSize: 0x2C }
  - { offsetInCU: 0x1368C, offset: 0x1368C, size: 0x8, addend: 0x0, symName: __ZNSt3__120__shared_ptr_emplaceI5metalNS_9allocatorIS1_EEE8_StorageD2B7v160006Ev, symObjAddr: 0x7738, symBinAddr: 0x100009820, symSize: 0x2C }
  - { offsetInCU: 0x136B6, offset: 0x136B6, size: 0x8, addend: 0x0, symName: __ZNSt3__120__shared_ptr_emplaceI5metalNS_9allocatorIS1_EEED2Ev, symObjAddr: 0x7764, symBinAddr: 0x10000984C, symSize: 0x48 }
  - { offsetInCU: 0x136E3, offset: 0x136E3, size: 0x8, addend: 0x0, symName: __ZNSt3__120__shared_ptr_emplaceI5metalNS_9allocatorIS1_EEE11__get_allocB7v160006Ev, symObjAddr: 0x77AC, symBinAddr: 0x100009894, symSize: 0x28 }
  - { offsetInCU: 0x13709, offset: 0x13709, size: 0x8, addend: 0x0, symName: __ZNSt3__116allocator_traitsINS_9allocatorINS_20__shared_ptr_emplaceI5metalNS1_IS3_EEEEEEE10deallocateB7v160006ERS6_PS5_m, symObjAddr: 0x77D4, symBinAddr: 0x1000098BC, symSize: 0x34 }
  - { offsetInCU: 0x1374B, offset: 0x1374B, size: 0x8, addend: 0x0, symName: __ZNSt3__114pointer_traitsIPNS_20__shared_ptr_emplaceI5metalNS_9allocatorIS2_EEEEE10pointer_toB7v160006ERS5_, symObjAddr: 0x7808, symBinAddr: 0x1000098F0, symSize: 0x14 }
  - { offsetInCU: 0x1376E, offset: 0x1376E, size: 0x8, addend: 0x0, symName: __ZNSt3__19allocatorINS_20__shared_ptr_emplaceI5metalNS0_IS2_EEEEE10deallocateB7v160006EPS4_m, symObjAddr: 0x781C, symBinAddr: 0x100009904, symSize: 0x40 }
  - { offsetInCU: 0x137B0, offset: 0x137B0, size: 0x8, addend: 0x0, symName: __ZNSt3__110shared_ptrI5metalEC1B7v160006Ev, symObjAddr: 0x785C, symBinAddr: 0x100009944, symSize: 0x2C }
  - { offsetInCU: 0x137DA, offset: 0x137DA, size: 0x8, addend: 0x0, symName: __ZNSt3__110shared_ptrI5metalE18__enable_weak_thisB7v160006Ez, symObjAddr: 0x7888, symBinAddr: 0x100009970, symSize: 0x10 }
  - { offsetInCU: 0x13801, offset: 0x13801, size: 0x8, addend: 0x0, symName: __ZNSt3__110shared_ptrI5metalEC2B7v160006Ev, symObjAddr: 0x7898, symBinAddr: 0x100009980, symSize: 0x1C }
  - { offsetInCU: 0x1382B, offset: 0x1382B, size: 0x8, addend: 0x0, symName: __ZNSt3__120__shared_ptr_emplaceI5metalNS_9allocatorIS1_EEE8_Storage10__get_elemEv, symObjAddr: 0x78B4, symBinAddr: 0x10000999C, symSize: 0x3C }
  - { offsetInCU: 0x1387E, offset: 0x1387E, size: 0x8, addend: 0x0, symName: __ZNSt3__117__compressed_pairINS_9allocatorI5metalEES2_E17__get_second_baseB7v160006EPS4_, symObjAddr: 0x78F0, symBinAddr: 0x1000099D8, symSize: 0x14 }
  - { offsetInCU: 0x138A1, offset: 0x138A1, size: 0x8, addend: 0x0, symName: __ZNSt3__118__allocation_guardINS_9allocatorINS_20__shared_ptr_emplaceI5metalNS1_IS3_EEEEEEED2B7v160006Ev, symObjAddr: 0x7904, symBinAddr: 0x1000099EC, symSize: 0x58 }
  - { offsetInCU: 0x138CB, offset: 0x138CB, size: 0x8, addend: 0x0, symName: __ZNSt3__19allocatorI5metalEC2B7v160006Ev, symObjAddr: 0x795C, symBinAddr: 0x100009A44, symSize: 0x2C }
  - { offsetInCU: 0x138F5, offset: 0x138F5, size: 0x8, addend: 0x0, symName: __ZNSt3__116__non_trivial_ifILb1ENS_9allocatorI5metalEEEC2B7v160006Ev, symObjAddr: 0x7988, symBinAddr: 0x100009A70, symSize: 0x14 }
  - { offsetInCU: 0x1391F, offset: 0x1391F, size: 0x8, addend: 0x0, symName: __ZNSt3__110shared_ptrI5metalED2B7v160006Ev, symObjAddr: 0x799C, symBinAddr: 0x100009A84, symSize: 0x54 }
  - { offsetInCU: 0x13949, offset: 0x13949, size: 0x8, addend: 0x0, symName: __ZNSt3__19allocatorI6sphereEC1B7v160006Ev, symObjAddr: 0x7A98, symBinAddr: 0x100009B80, symSize: 0x2C }
  - { offsetInCU: 0x139AF, offset: 0x139AF, size: 0x8, addend: 0x0, symName: __ZNSt3__118__allocation_guardINS_9allocatorINS_20__shared_ptr_emplaceI6sphereNS1_IS3_EEEEEEEC1B7v160006IS4_EET_m, symObjAddr: 0x7AC4, symBinAddr: 0x100009BAC, symSize: 0x34 }
  - { offsetInCU: 0x139FE, offset: 0x139FE, size: 0x8, addend: 0x0, symName: __ZNKSt3__118__allocation_guardINS_9allocatorINS_20__shared_ptr_emplaceI6sphereNS1_IS3_EEEEEEE5__getB7v160006Ev, symObjAddr: 0x7AF8, symBinAddr: 0x100009BE0, symSize: 0x18 }
  - { offsetInCU: 0x13A24, offset: 0x13A24, size: 0x8, addend: 0x0, symName: __ZNSt3__120__shared_ptr_emplaceI6sphereNS_9allocatorIS1_EEEC1B7v160006IJ4vec3dRNS_10shared_ptrI10lambertianEEEEES3_DpOT_, symObjAddr: 0x7B10, symBinAddr: 0x100009BF8, symSize: 0x44 }
  - { offsetInCU: 0x13A9F, offset: 0x13A9F, size: 0x8, addend: 0x0, symName: __ZNSt3__118__allocation_guardINS_9allocatorINS_20__shared_ptr_emplaceI6sphereNS1_IS3_EEEEEEE13__release_ptrB7v160006Ev, symObjAddr: 0x7B54, symBinAddr: 0x100009C3C, symSize: 0x24 }
  - { offsetInCU: 0x13AD3, offset: 0x13AD3, size: 0x8, addend: 0x0, symName: __ZNSt3__110shared_ptrI6sphereE27__create_with_control_blockB7v160006IS1_NS_20__shared_ptr_emplaceIS1_NS_9allocatorIS1_EEEEEES2_PT_PT0_, symObjAddr: 0x7B78, symBinAddr: 0x100009C60, symSize: 0xA4 }
  - { offsetInCU: 0x13B28, offset: 0x13B28, size: 0x8, addend: 0x0, symName: __ZNSt3__120__shared_ptr_emplaceI6sphereNS_9allocatorIS1_EEE10__get_elemB7v160006Ev, symObjAddr: 0x7C1C, symBinAddr: 0x100009D04, symSize: 0x28 }
  - { offsetInCU: 0x13B4E, offset: 0x13B4E, size: 0x8, addend: 0x0, symName: __ZNSt3__118__allocation_guardINS_9allocatorINS_20__shared_ptr_emplaceI6sphereNS1_IS3_EEEEEEED1B7v160006Ev, symObjAddr: 0x7C44, symBinAddr: 0x100009D2C, symSize: 0x2C }
  - { offsetInCU: 0x13B78, offset: 0x13B78, size: 0x8, addend: 0x0, symName: __ZNSt3__118__allocation_guardINS_9allocatorINS_20__shared_ptr_emplaceI6sphereNS1_IS3_EEEEEEEC2B7v160006IS4_EET_m, symObjAddr: 0x7C70, symBinAddr: 0x100009D58, symSize: 0x50 }
  - { offsetInCU: 0x13BC7, offset: 0x13BC7, size: 0x8, addend: 0x0, symName: __ZNSt3__19allocatorINS_20__shared_ptr_emplaceI6sphereNS0_IS2_EEEEEC1B7v160006IS2_EERKNS0_IT_EE, symObjAddr: 0x7CC0, symBinAddr: 0x100009DA8, symSize: 0x34 }
  - { offsetInCU: 0x13C05, offset: 0x13C05, size: 0x8, addend: 0x0, symName: __ZNSt3__116allocator_traitsINS_9allocatorINS_20__shared_ptr_emplaceI6sphereNS1_IS3_EEEEEEE8allocateB7v160006ERS6_m, symObjAddr: 0x7CF4, symBinAddr: 0x100009DDC, symSize: 0x2C }
  - { offsetInCU: 0x13C38, offset: 0x13C38, size: 0x8, addend: 0x0, symName: __ZNSt3__19allocatorINS_20__shared_ptr_emplaceI6sphereNS0_IS2_EEEEEC2B7v160006IS2_EERKNS0_IT_EE, symObjAddr: 0x7D20, symBinAddr: 0x100009E08, symSize: 0x30 }
  - { offsetInCU: 0x13C76, offset: 0x13C76, size: 0x8, addend: 0x0, symName: __ZNSt3__116__non_trivial_ifILb1ENS_9allocatorINS_20__shared_ptr_emplaceI6sphereNS1_IS3_EEEEEEEC2B7v160006Ev, symObjAddr: 0x7D50, symBinAddr: 0x100009E38, symSize: 0x14 }
  - { offsetInCU: 0x13CA0, offset: 0x13CA0, size: 0x8, addend: 0x0, symName: __ZNSt3__19allocatorINS_20__shared_ptr_emplaceI6sphereNS0_IS2_EEEEE8allocateB7v160006Em, symObjAddr: 0x7D64, symBinAddr: 0x100009E4C, symSize: 0x5C }
  - { offsetInCU: 0x13CDE, offset: 0x13CDE, size: 0x8, addend: 0x0, symName: __ZNSt3__116allocator_traitsINS_9allocatorINS_20__shared_ptr_emplaceI6sphereNS1_IS3_EEEEEEE8max_sizeB7v160006IS6_vEEmRKS6_, symObjAddr: 0x7DC0, symBinAddr: 0x100009EA8, symSize: 0x24 }
  - { offsetInCU: 0x13D0C, offset: 0x13D0C, size: 0x8, addend: 0x0, symName: __ZNKSt3__19allocatorINS_20__shared_ptr_emplaceI6sphereNS0_IS2_EEEEE8max_sizeB7v160006Ev, symObjAddr: 0x7DE4, symBinAddr: 0x100009ECC, symSize: 0x18 }
  - { offsetInCU: 0x13D32, offset: 0x13D32, size: 0x8, addend: 0x0, symName: __ZNSt3__120__shared_ptr_emplaceI6sphereNS_9allocatorIS1_EEEC2B7v160006IJ4vec3dRNS_10shared_ptrI10lambertianEEEEES3_DpOT_, symObjAddr: 0x7DFC, symBinAddr: 0x100009EE4, symSize: 0x100 }
  - { offsetInCU: 0x13DAD, offset: 0x13DAD, size: 0x8, addend: 0x0, symName: __ZNSt3__120__shared_ptr_emplaceI6sphereNS_9allocatorIS1_EEE8_StorageC1B7v160006EOS3_, symObjAddr: 0x7EFC, symBinAddr: 0x100009FE4, symSize: 0x34 }
  - { offsetInCU: 0x13DE6, offset: 0x13DE6, size: 0x8, addend: 0x0, symName: __ZNSt3__110shared_ptrI8materialEC1B7v160006I10lambertianvEERKNS0_IT_EE, symObjAddr: 0x7F30, symBinAddr: 0x10000A018, symSize: 0x34 }
  - { offsetInCU: 0x13E29, offset: 0x13E29, size: 0x8, addend: 0x0, symName: __ZN6sphereC1ERK4vec3dNSt3__110shared_ptrI8materialEE, symObjAddr: 0x7F64, symBinAddr: 0x10000A04C, symSize: 0x44 }
  - { offsetInCU: 0x13E7E, offset: 0x13E7E, size: 0x8, addend: 0x0, symName: __ZNSt3__120__shared_ptr_emplaceI6sphereNS_9allocatorIS1_EEE8_StorageD1B7v160006Ev, symObjAddr: 0x7FA8, symBinAddr: 0x10000A090, symSize: 0x2C }
  - { offsetInCU: 0x13EA8, offset: 0x13EA8, size: 0x8, addend: 0x0, symName: __ZNSt3__120__shared_ptr_emplaceI6sphereNS_9allocatorIS1_EEED1Ev, symObjAddr: 0x7FD4, symBinAddr: 0x10000A0BC, symSize: 0x2C }
  - { offsetInCU: 0x13ED5, offset: 0x13ED5, size: 0x8, addend: 0x0, symName: __ZNSt3__120__shared_ptr_emplaceI6sphereNS_9allocatorIS1_EEED0Ev, symObjAddr: 0x8000, symBinAddr: 0x10000A0E8, symSize: 0x30 }
  - { offsetInCU: 0x13F02, offset: 0x13F02, size: 0x8, addend: 0x0, symName: __ZNSt3__120__shared_ptr_emplaceI6sphereNS_9allocatorIS1_EEE16__on_zero_sharedEv, symObjAddr: 0x8030, symBinAddr: 0x10000A118, symSize: 0x30 }
  - { offsetInCU: 0x13F28, offset: 0x13F28, size: 0x8, addend: 0x0, symName: __ZNSt3__120__shared_ptr_emplaceI6sphereNS_9allocatorIS1_EEE21__on_zero_shared_weakEv, symObjAddr: 0x8060, symBinAddr: 0x10000A148, symSize: 0x5C }
  - { offsetInCU: 0x13F69, offset: 0x13F69, size: 0x8, addend: 0x0, symName: __ZNSt3__120__shared_ptr_emplaceI6sphereNS_9allocatorIS1_EEE8_StorageC2B7v160006EOS3_, symObjAddr: 0x80BC, symBinAddr: 0x10000A1A4, symSize: 0x30 }
  - { offsetInCU: 0x13FA2, offset: 0x13FA2, size: 0x8, addend: 0x0, symName: __ZNSt3__120__shared_ptr_emplaceI6sphereNS_9allocatorIS1_EEE8_Storage11__get_allocEv, symObjAddr: 0x80EC, symBinAddr: 0x10000A1D4, symSize: 0x3C }
  - { offsetInCU: 0x13FF5, offset: 0x13FF5, size: 0x8, addend: 0x0, symName: __ZNSt3__117__compressed_pairINS_9allocatorI6sphereEES2_E16__get_first_baseB7v160006EPS4_, symObjAddr: 0x8128, symBinAddr: 0x10000A210, symSize: 0x14 }
  - { offsetInCU: 0x14018, offset: 0x14018, size: 0x8, addend: 0x0, symName: __ZNSt3__110shared_ptrI8materialEC2B7v160006I10lambertianvEERKNS0_IT_EE, symObjAddr: 0x813C, symBinAddr: 0x10000A224, symSize: 0x70 }
  - { offsetInCU: 0x1405B, offset: 0x1405B, size: 0x8, addend: 0x0, symName: __ZN6sphereC2ERK4vec3dNSt3__110shared_ptrI8materialEE, symObjAddr: 0x81AC, symBinAddr: 0x10000A294, symSize: 0x8C }
  - { offsetInCU: 0x140B0, offset: 0x140B0, size: 0x8, addend: 0x0, symName: __ZN6sphereD1Ev, symObjAddr: 0x8264, symBinAddr: 0x10000A34C, symSize: 0x2C }
  - { offsetInCU: 0x140DC, offset: 0x140DC, size: 0x8, addend: 0x0, symName: __ZN6sphereD0Ev, symObjAddr: 0x8290, symBinAddr: 0x10000A378, symSize: 0x30 }
  - { offsetInCU: 0x14108, offset: 0x14108, size: 0x8, addend: 0x0, symName: __ZNK6sphere3hitERK3ray8intervalR10hit_record, symObjAddr: 0x82C0, symBinAddr: 0x10000A3A8, symSize: 0x218 }
  - { offsetInCU: 0x141CF, offset: 0x141CF, size: 0x8, addend: 0x0, symName: __ZN6sphereD2Ev, symObjAddr: 0x84D8, symBinAddr: 0x10000A5C0, symSize: 0x48 }
  - { offsetInCU: 0x141FB, offset: 0x141FB, size: 0x8, addend: 0x0, symName: __ZNK3ray6originEv, symObjAddr: 0x8520, symBinAddr: 0x10000A608, symSize: 0x14 }
  - { offsetInCU: 0x14221, offset: 0x14221, size: 0x8, addend: 0x0, symName: __ZNK8interval9surroundsEd, symObjAddr: 0x8534, symBinAddr: 0x10000A61C, symSize: 0x60 }
  - { offsetInCU: 0x14255, offset: 0x14255, size: 0x8, addend: 0x0, symName: __ZNK3ray2atEd, symObjAddr: 0x8594, symBinAddr: 0x10000A67C, symSize: 0x64 }
  - { offsetInCU: 0x14289, offset: 0x14289, size: 0x8, addend: 0x0, symName: __ZN10hit_record15set_face_normalERK3rayRK4vec3, symObjAddr: 0x85F8, symBinAddr: 0x10000A6E0, symSize: 0xA4 }
  - { offsetInCU: 0x142CB, offset: 0x142CB, size: 0x8, addend: 0x0, symName: __ZNSt3__120__shared_ptr_emplaceI6sphereNS_9allocatorIS1_EEE8_StorageD2B7v160006Ev, symObjAddr: 0x869C, symBinAddr: 0x10000A784, symSize: 0x2C }
  - { offsetInCU: 0x142F5, offset: 0x142F5, size: 0x8, addend: 0x0, symName: __ZNSt3__120__shared_ptr_emplaceI6sphereNS_9allocatorIS1_EEED2Ev, symObjAddr: 0x86C8, symBinAddr: 0x10000A7B0, symSize: 0x48 }
  - { offsetInCU: 0x14322, offset: 0x14322, size: 0x8, addend: 0x0, symName: __ZNSt3__120__shared_ptr_emplaceI6sphereNS_9allocatorIS1_EEE11__get_allocB7v160006Ev, symObjAddr: 0x8710, symBinAddr: 0x10000A7F8, symSize: 0x28 }
  - { offsetInCU: 0x14348, offset: 0x14348, size: 0x8, addend: 0x0, symName: __ZNSt3__116allocator_traitsINS_9allocatorINS_20__shared_ptr_emplaceI6sphereNS1_IS3_EEEEEEE10deallocateB7v160006ERS6_PS5_m, symObjAddr: 0x8738, symBinAddr: 0x10000A820, symSize: 0x34 }
  - { offsetInCU: 0x1438A, offset: 0x1438A, size: 0x8, addend: 0x0, symName: __ZNSt3__114pointer_traitsIPNS_20__shared_ptr_emplaceI6sphereNS_9allocatorIS2_EEEEE10pointer_toB7v160006ERS5_, symObjAddr: 0x876C, symBinAddr: 0x10000A854, symSize: 0x14 }
  - { offsetInCU: 0x143AD, offset: 0x143AD, size: 0x8, addend: 0x0, symName: __ZNSt3__19allocatorINS_20__shared_ptr_emplaceI6sphereNS0_IS2_EEEEE10deallocateB7v160006EPS4_m, symObjAddr: 0x8780, symBinAddr: 0x10000A868, symSize: 0x44 }
  - { offsetInCU: 0x143EF, offset: 0x143EF, size: 0x8, addend: 0x0, symName: __ZNSt3__110shared_ptrI6sphereEC1B7v160006Ev, symObjAddr: 0x87C4, symBinAddr: 0x10000A8AC, symSize: 0x2C }
  - { offsetInCU: 0x14419, offset: 0x14419, size: 0x8, addend: 0x0, symName: __ZNSt3__110shared_ptrI6sphereE18__enable_weak_thisB7v160006Ez, symObjAddr: 0x87F0, symBinAddr: 0x10000A8D8, symSize: 0x10 }
  - { offsetInCU: 0x14440, offset: 0x14440, size: 0x8, addend: 0x0, symName: __ZNSt3__110shared_ptrI6sphereEC2B7v160006Ev, symObjAddr: 0x8800, symBinAddr: 0x10000A8E8, symSize: 0x1C }
  - { offsetInCU: 0x1446A, offset: 0x1446A, size: 0x8, addend: 0x0, symName: __ZNSt3__120__shared_ptr_emplaceI6sphereNS_9allocatorIS1_EEE8_Storage10__get_elemEv, symObjAddr: 0x881C, symBinAddr: 0x10000A904, symSize: 0x3C }
  - { offsetInCU: 0x144BD, offset: 0x144BD, size: 0x8, addend: 0x0, symName: __ZNSt3__117__compressed_pairINS_9allocatorI6sphereEES2_E17__get_second_baseB7v160006EPS4_, symObjAddr: 0x8858, symBinAddr: 0x10000A940, symSize: 0x14 }
  - { offsetInCU: 0x144E0, offset: 0x144E0, size: 0x8, addend: 0x0, symName: __ZNSt3__118__allocation_guardINS_9allocatorINS_20__shared_ptr_emplaceI6sphereNS1_IS3_EEEEEEED2B7v160006Ev, symObjAddr: 0x886C, symBinAddr: 0x10000A954, symSize: 0x58 }
  - { offsetInCU: 0x1450A, offset: 0x1450A, size: 0x8, addend: 0x0, symName: __ZNSt3__19allocatorI6sphereEC2B7v160006Ev, symObjAddr: 0x88C4, symBinAddr: 0x10000A9AC, symSize: 0x2C }
  - { offsetInCU: 0x14534, offset: 0x14534, size: 0x8, addend: 0x0, symName: __ZNSt3__116__non_trivial_ifILb1ENS_9allocatorI6sphereEEEC2B7v160006Ev, symObjAddr: 0x88F0, symBinAddr: 0x10000A9D8, symSize: 0x14 }
  - { offsetInCU: 0x1455E, offset: 0x1455E, size: 0x8, addend: 0x0, symName: __ZNSt3__110shared_ptrI6sphereED2B7v160006Ev, symObjAddr: 0x8904, symBinAddr: 0x10000A9EC, symSize: 0x54 }
  - { offsetInCU: 0x14588, offset: 0x14588, size: 0x8, addend: 0x0, symName: __ZNSt3__110shared_ptrI8hittableEC2B7v160006I6spherevEEONS0_IT_EE, symObjAddr: 0x8958, symBinAddr: 0x10000AA40, symSize: 0x40 }
  - { offsetInCU: 0x145CB, offset: 0x145CB, size: 0x8, addend: 0x0, symName: __ZNSt3__120__shared_ptr_emplaceI6sphereNS_9allocatorIS1_EEEC1B7v160006IJ4vec3dRNS_10shared_ptrI10dielectricEEEEES3_DpOT_, symObjAddr: 0x8A40, symBinAddr: 0x10000AB28, symSize: 0x44 }
  - { offsetInCU: 0x14646, offset: 0x14646, size: 0x8, addend: 0x0, symName: __ZNSt3__120__shared_ptr_emplaceI6sphereNS_9allocatorIS1_EEEC2B7v160006IJ4vec3dRNS_10shared_ptrI10dielectricEEEEES3_DpOT_, symObjAddr: 0x8A84, symBinAddr: 0x10000AB6C, symSize: 0x100 }
  - { offsetInCU: 0x146C1, offset: 0x146C1, size: 0x8, addend: 0x0, symName: __ZNSt3__110shared_ptrI8materialEC1B7v160006I10dielectricvEERKNS0_IT_EE, symObjAddr: 0x8B84, symBinAddr: 0x10000AC6C, symSize: 0x34 }
  - { offsetInCU: 0x14704, offset: 0x14704, size: 0x8, addend: 0x0, symName: __ZNSt3__110shared_ptrI8materialEC2B7v160006I10dielectricvEERKNS0_IT_EE, symObjAddr: 0x8BB8, symBinAddr: 0x10000ACA0, symSize: 0x70 }
  - { offsetInCU: 0x14747, offset: 0x14747, size: 0x8, addend: 0x0, symName: __ZNSt3__120__shared_ptr_emplaceI6sphereNS_9allocatorIS1_EEEC1B7v160006IJ4vec3dRNS_10shared_ptrI5metalEEEEES3_DpOT_, symObjAddr: 0x8CD0, symBinAddr: 0x10000ADB8, symSize: 0x44 }
  - { offsetInCU: 0x147C2, offset: 0x147C2, size: 0x8, addend: 0x0, symName: __ZNSt3__120__shared_ptr_emplaceI6sphereNS_9allocatorIS1_EEEC2B7v160006IJ4vec3dRNS_10shared_ptrI5metalEEEEES3_DpOT_, symObjAddr: 0x8D14, symBinAddr: 0x10000ADFC, symSize: 0x100 }
  - { offsetInCU: 0x1483D, offset: 0x1483D, size: 0x8, addend: 0x0, symName: __ZNSt3__110shared_ptrI8materialEC1B7v160006I5metalvEERKNS0_IT_EE, symObjAddr: 0x8E14, symBinAddr: 0x10000AEFC, symSize: 0x34 }
  - { offsetInCU: 0x14880, offset: 0x14880, size: 0x8, addend: 0x0, symName: __ZNSt3__110shared_ptrI8materialEC2B7v160006I5metalvEERKNS0_IT_EE, symObjAddr: 0x8E48, symBinAddr: 0x10000AF30, symSize: 0x70 }
...
